Certificate:
    Data:
        Version: 3 (0x2)
        Serial Number:
            44:3b:fc:79:ce:59:5f:10:6f:20:6d:5d:ff:79:10:5a:0f:6d:65:d9
        Signature Algorithm: sha256WithRSAEncryption
        Issuer: C=NO, O=Green AS, OU=Green Certificate Authority, CN=Green TLS CA
        Validity
            Not Before: May 18 10:42:08 2020 GMT
            Not After : May 18 10:42:08 2022 GMT
        Subject: C=NO, O=Green AS, OU=Green Certificate Authority, CN=Team 29
        Subject Public Key Info:
            Public Key Algorithm: rsaEncryption
                RSA Public-Key: (4096 bit)
                Modulus:
                    00:c6:c8:af:17:57:e2:58:f7:24:7e:c6:31:4f:0c:
                    2c:5a:61:00:4e:3c:6e:88:67:29:36:23:58:84:f6:
                    59:b7:c3:1a:ca:e8:66:00:23:2a:83:08:5f:b6:79:
                    12:51:94:b7:01:9e:23:b3:f9:7e:8b:7a:4d:37:ec:
                    86:93:52:36:1a:17:5d:b0:b2:ba:04:4e:2a:04:1f:
                    20:e0:2d:b2:c1:7b:a4:76:de:01:14:3a:51:21:7d:
                    31:0a:7f:fd:bd:39:81:a1:40:55:eb:72:01:8d:14:
                    bb:9b:54:ce:eb:fb:fc:76:2b:ec:eb:6d:2e:65:c1:
                    f7:a4:34:77:9c:09:ae:08:2a:bf:50:e4:8b:66:26:
                    cb:2e:c4:2a:08:29:af:6b:c5:d7:47:66:bc:1c:ae:
                    54:bf:64:da:72:66:54:13:99:86:75:3e:7d:ae:56:
                    a1:ff:03:aa:f5:f4:a6:5e:8a:5e:1a:17:46:a7:5e:
                    3c:40:98:5b:56:c2:a7:8a:dd:85:28:d0:69:f9:b1:
                    6a:16:db:52:b2:70:bf:91:16:ed:a8:ab:84:3c:ea:
                    ea:29:3a:3b:00:86:a6:9f:e1:cf:c9:18:a5:ae:9b:
                    bd:5a:a3:f2:81:b7:a2:f2:36:aa:af:ac:2a:49:fb:
                    88:d9:40:fe:bd:9f:23:61:72:31:00:0f:63:14:f6:
                    fa:ea:25:31:e0:56:77:c2:29:c5:99:61:4a:57:a7:
                    20:66:51:a6:7c:8d:7a:8f:a4:c9:de:05:f4:f0:fc:
                    74:fd:ac:f7:68:8f:d2:fe:e9:b1:32:ce:b6:92:c4:
                    20:11:46:b3:f2:63:56:34:44:c8:dd:29:a7:1a:95:
                    00:12:1a:83:77:c3:ae:f2:f3:2a:2d:2e:9a:5f:52:
                    67:5f:e7:e2:4d:8e:6a:8c:a9:d8:cc:df:ed:8a:7b:
                    a0:b2:28:ac:9e:ee:e2:aa:58:67:73:33:2e:3b:aa:
                    8e:f2:d4:54:21:31:94:fe:ba:64:30:fa:03:6e:51:
                    fc:16:73:57:ae:1e:73:00:e1:af:58:45:0e:ea:e3:
                    52:b3:42:41:3e:a4:65:9c:bc:c2:4d:2b:4c:76:74:
                    a1:10:48:aa:fc:b2:8a:d4:f5:44:e0:04:6a:85:bc:
                    b6:03:d1:c0:4e:51:f1:5d:f5:8a:4d:6e:58:de:ef:
                    6a:bf:f5:6f:fd:17:cb:4b:dc:56:a9:a7:b9:a5:e9:
                    2a:4b:a7:6c:27:7f:fb:6a:2b:b6:d2:e3:18:91:96:
                    8a:48:6c:6f:ef:d9:d4:75:39:bf:40:a1:9b:f8:1e:
                    1a:55:40:fa:09:f1:d0:9e:a4:5b:c7:42:84:a1:67:
                    59:ef:41:90:bd:86:53:d5:11:e7:2b:e3:ad:46:b1:
                    0d:19:57
                Exponent: 65537 (0x10001)
        X509v3 extensions:
            X509v3 Key Usage: critical
                Digital Signature
            X509v3 Basic Constraints: 
                CA:FALSE
            X509v3 Extended Key Usage: 
                TLS Web Client Authentication
            X509v3 Subject Key Identifier: 
                80:ED:20:79:F2:3A:E6:E5:F4:07:CB:1C:05:40:1F:54:8E:9F:40:88
            X509v3 Authority Key Identifier: 
                keyid:49:4A:58:75:16:43:24:27:EA:CD:38:D4:BF:E8:6F:E8:7D:B2:73:01

            Authority Information Access: 
                CA Issuers - URI:http://green.no/ca/tls-ca.cer

            X509v3 CRL Distribution Points: 

                Full Name:
                  URI:http://green.no/ca/tls-ca.crl

    Signature Algorithm: sha256WithRSAEncryption
         1c:84:b3:51:86:c1:48:b2:8b:65:c7:72:5d:aa:60:a8:43:67:
         6a:6c:1d:16:b4:ed:d7:46:73:6a:54:a2:8f:08:ba:85:0f:19:
         90:85:2f:fa:39:23:cf:62:2c:cc:b8:2d:a9:62:d4:97:69:1b:
         4e:7c:a1:fa:95:15:6c:47:2e:f6:74:a6:98:45:67:4b:56:3f:
         df:09:b4:ca:92:d0:e7:17:47:01:67:74:54:32:eb:90:62:0c:
         c8:15:2d:97:54:25:c6:3d:f6:24:2b:82:b5:91:35:0c:aa:87:
         4d:fc:d7:90:77:63:84:91:01:88:97:94:44:33:39:ec:63:54:
         75:86:da:ac:59:df:f8:79:00:17:ac:a5:7f:26:7c:67:b2:e1:
         8c:82:bf:6e:00:6c:bd:98:bd:1a:68:2d:bd:18:63:67:1b:ef:
         86:62:a1:32:39:6c:47:46:c5:28:ac:7d:0b:fe:96:47:c7:c2:
         e3:e3:74:4f:15:85:9a:78:30:3a:3a:08:0d:b6:12:8f:92:eb:
         dc:26:25:e1:cf:31:bd:d8:c0:29:c2:07:ac:33:9a:a6:ec:9d:
         5b:60:ab:fb:6d:60:06:1a:2e:1b:3c:f9:86:e1:36:07:85:81:
         8f:c3:1f:3d:df:bf:c2:05:11:1a:5c:a3:d9:fb:3f:70:d3:30:
         db:cd:cd:e4:9a:4c:7a:31:fb:8a:65:3f:12:e3:2b:58:a6:e7:
         73:4a:d5:22:f4:72:c6:aa:4a:a1:b5:37:24:0e:b1:42:5d:5c:
         02:5b:15:4f:09:e8:23:3c:bc:90:98:9b:0e:3c:1d:f4:ec:f6:
         18:5b:c3:7b:a0:7e:d8:05:06:34:c0:86:ba:8b:1f:e0:37:b3:
         cd:1e:a7:48:5c:ce:46:e5:79:94:52:9c:b0:a4:ce:32:10:11:
         9c:43:4e:ea:9f:9a:25:b5:65:da:a0:c6:81:a8:76:90:a3:03:
         23:69:aa:85:29:18:57:32:dd:0b:bf:c5:0b:43:b3:c5:aa:0e:
         ce:0a:2e:2b:9e:dc:4e:71:7f:fc:34:46:2f:99:7f:20:e2:ac:
         cb:18:6b:7e:52:8a:49:33:18:7e:5a:98:59:50:18:91:84:cc:
         03:02:db:77:24:a2:7c:17:f8:66:55:93:5c:74:4d:e8:08:36:
         7e:ac:a4:e7:fc:c5:1a:b4:64:69:c0:c1:1b:8b:83:7f:54:50:
         f9:08:0d:ee:f7:66:c2:3a:74:79:c9:13:52:fe:fc:b6:e1:8c:
         4e:6d:20:9a:fa:69:61:da:03:88:b7:83:2c:97:e5:26:b2:88:
         6f:ad:5c:65:67:cc:ae:b4:a3:52:2f:2f:68:e4:c6:17:27:05:
         4e:58:75:4e:1e:51:2d:d9
-----BEGIN CERTIFICATE-----
MIIGIjCCBAqgAwIBAgIURDv8ec5ZXxBvIG1d/3kQWg9tZdkwDQYJKoZIhvcNAQEL
BQAwXTELMAkGA1UEBhMCTk8xETAPBgNVBAoMCEdyZWVuIEFTMSQwIgYDVQQLDBtH
cmVlbiBDZXJ0aWZpY2F0ZSBBdXRob3JpdHkxFTATBgNVBAMMDEdyZWVuIFRMUyBD
QTAeFw0yMDA1MTgxMDQyMDhaFw0yMjA1MTgxMDQyMDhaMFgxCzAJBgNVBAYTAk5P
MREwDwYDVQQKDAhHcmVlbiBBUzEkMCIGA1UECwwbR3JlZW4gQ2VydGlmaWNhdGUg
QXV0aG9yaXR5MRAwDgYDVQQDDAdUZWFtIDI5MIICIjANBgkqhkiG9w0BAQEFAAOC
Ag8AMIICCgKCAgEAxsivF1fiWPckfsYxTwwsWmEATjxuiGcpNiNYhPZZt8Mayuhm
ACMqgwhftnkSUZS3AZ4js/l+i3pNN+yGk1I2GhddsLK6BE4qBB8g4C2ywXukdt4B
FDpRIX0xCn/9vTmBoUBV63IBjRS7m1TO6/v8divs620uZcH3pDR3nAmuCCq/UOSL
ZibLLsQqCCmva8XXR2a8HK5Uv2TacmZUE5mGdT59rlah/wOq9fSmXopeGhdGp148
QJhbVsKnit2FKNBp+bFqFttSsnC/kRbtqKuEPOrqKTo7AIamn+HPyRilrpu9WqPy
gbei8jaqr6wqSfuI2UD+vZ8jYXIxAA9jFPb66iUx4FZ3winFmWFKV6cgZlGmfI16
j6TJ3gX08Px0/az3aI/S/umxMs62ksQgEUaz8mNWNETI3SmnGpUAEhqDd8Ou8vMq
LS6aX1JnX+fiTY5qjKnYzN/tinugsiisnu7iqlhnczMuO6qO8tRUITGU/rpkMPoD
blH8FnNXrh5zAOGvWEUO6uNSs0JBPqRlnLzCTStMdnShEEiq/LKK1PVE4ARqhby2
A9HATlHxXfWKTW5Y3u9qv/Vv/RfLS9xWqae5pekqS6dsJ3/7aiu20uMYkZaKSGxv
79nUdTm/QKGb+B4aVUD6CfHQnqRbx0KEoWdZ70GQvYZT1RHnK+OtRrENGVcCAwEA
AaOB3jCB2zAOBgNVHQ8BAf8EBAMCB4AwCQYDVR0TBAIwADATBgNVHSUEDDAKBggr
BgEFBQcDAjAdBgNVHQ4EFgQUgO0gefI65uX0B8scBUAfVI6fQIgwHwYDVR0jBBgw
FoAUSUpYdRZDJCfqzTjUv+hv6H2ycwEwOQYIKwYBBQUHAQEELTArMCkGCCsGAQUF
BzAChh1odHRwOi8vZ3JlZW4ubm8vY2EvdGxzLWNhLmNlcjAuBgNVHR8EJzAlMCOg
IaAfhh1odHRwOi8vZ3JlZW4ubm8vY2EvdGxzLWNhLmNybDANBgkqhkiG9w0BAQsF
AAOCAgEAHISzUYbBSLKLZcdyXapgqENnamwdFrTt10ZzalSijwi6hQ8ZkIUv+jkj
z2IszLgtqWLUl2kbTnyh+pUVbEcu9nSmmEVnS1Y/3wm0ypLQ5xdHAWd0VDLrkGIM
yBUtl1Qlxj32JCuCtZE1DKqHTfzXkHdjhJEBiJeURDM57GNUdYbarFnf+HkAF6yl
fyZ8Z7LhjIK/bgBsvZi9GmgtvRhjZxvvhmKhMjlsR0bFKKx9C/6WR8fC4+N0TxWF
mngwOjoIDbYSj5Lr3CYl4c8xvdjAKcIHrDOapuydW2Cr+21gBhouGzz5huE2B4WB
j8MfPd+/wgURGlyj2fs/cNMw283N5JpMejH7imU/EuMrWKbnc0rVIvRyxqpKobU3
JA6xQl1cAlsVTwnoIzy8kJibDjwd9Oz2GFvDe6B+2AUGNMCGuosf4DezzR6nSFzO
RuV5lFKcsKTOMhARnENO6p+aJbVl2qDGgah2kKMDI2mqhSkYVzLdC7/FC0OzxaoO
zgouK57cTnF//DRGL5l/IOKsyxhrflKKSTMYflqYWVAYkYTMAwLbdySifBf4ZlWT
XHRN6Ag2fqyk5/zFGrRkacDBG4uDf1RQ+QgN7vdmwjp0eckTUv78tuGMTm0gmvpp
YdoDiLeDLJflJrKIb61cZWfMrrSjUi8vaOTGFycFTlh1Th5RLdk=
-----END CERTIFICATE-----
