Certificate:
    Data:
        Version: 3 (0x2)
        Serial Number:
            05:42:0c:7e:5d:e9:c1:86:68:37:48:cf:3b:95:01:c5:fb:ca:41:c3
        Signature Algorithm: sha256WithRSAEncryption
        Issuer: C=NO, O=Green AS, OU=Green Certificate Authority, CN=Green TLS CA
        Validity
            Not Before: Jun 20 14:58:09 2020 GMT
            Not After : Jun 20 14:58:09 2022 GMT
        Subject: C=NO, O=Green AS, OU=Green Certificate Authority, CN=Rent-a-Car Agent App
        Subject Public Key Info:
            Public Key Algorithm: rsaEncryption
                RSA Public-Key: (4096 bit)
                Modulus:
                    00:de:cb:74:f8:2c:15:e9:11:63:81:a8:de:81:9a:
                    2b:69:1d:1b:1b:66:23:b6:5d:fb:b5:22:d1:4c:f1:
                    11:9c:07:91:70:43:38:11:d0:86:10:ff:a3:c2:00:
                    fd:5c:1f:4e:32:1c:1a:c8:69:af:4a:64:d4:62:7a:
                    81:d7:16:8b:c5:e4:2a:d0:ff:85:29:89:c9:ea:53:
                    01:1b:da:e7:88:df:be:95:ab:09:07:47:fd:30:c7:
                    48:f4:f5:1e:2a:f6:b5:bd:ee:3f:5c:47:1b:61:13:
                    2d:dd:99:f9:3d:68:41:2b:0e:bf:46:dd:2d:69:e4:
                    e4:d0:db:c3:6b:41:79:aa:e3:37:16:c8:68:86:ff:
                    99:8d:3e:06:f5:8a:37:50:3b:26:a0:f9:d2:3f:1c:
                    de:5c:02:5b:33:2c:85:6f:4e:47:aa:d1:85:6b:da:
                    2f:33:4f:e4:a9:b3:7e:bf:cb:1a:0c:cf:8b:82:e4:
                    9e:2d:9a:ca:bd:2f:32:78:6a:85:cb:8f:50:b1:ca:
                    6e:8d:eb:c4:9c:1a:d5:11:26:06:67:ba:d6:ef:15:
                    b3:2d:1f:b7:f4:aa:8d:fb:03:73:d3:30:bb:5c:3f:
                    4f:e6:94:25:e7:62:a6:a8:4c:cd:71:69:1f:c8:3b:
                    ed:0c:aa:33:85:20:f6:de:46:a1:fe:da:f6:1e:f3:
                    5f:ff:76:58:fc:1b:e3:f2:16:cd:a2:59:b2:c0:4e:
                    62:c6:60:d9:f8:01:3c:31:5d:6d:5e:62:29:83:65:
                    dc:bd:03:35:01:f4:38:a0:01:76:f6:21:56:0a:c0:
                    cf:ff:25:ca:bf:61:21:fc:a4:96:8f:26:8f:6c:cc:
                    76:fe:ba:9d:dd:79:13:d9:71:2f:22:d9:ff:55:a5:
                    1a:bf:07:05:21:a8:ef:2a:e4:5e:ef:7b:3a:61:59:
                    81:1e:23:f0:a4:e4:02:c6:5e:e8:95:0b:b1:2a:b0:
                    48:50:ef:e0:fd:17:14:02:49:8f:ac:55:b7:90:ce:
                    7d:dc:aa:92:c4:08:4e:e6:d8:cd:40:01:c3:fc:f3:
                    60:6f:38:48:6b:16:86:0a:ef:8d:8b:ec:e8:30:2c:
                    ba:25:18:6b:43:3f:0d:6d:20:2a:85:20:fe:19:1d:
                    21:67:d6:64:1d:e0:8a:0c:3a:e2:72:37:95:50:ce:
                    ea:43:0e:ec:82:33:03:81:44:14:45:d3:2e:0e:25:
                    20:27:cd:6a:b2:bb:eb:aa:ac:95:25:b7:ce:97:96:
                    65:d3:21:ce:28:95:57:41:de:2a:f5:90:1c:ff:1c:
                    08:7d:4f:44:5c:07:cb:3e:83:0c:0c:d5:62:8b:4d:
                    10:92:42:28:ac:c1:83:a1:4f:96:2d:1e:08:fb:55:
                    8d:43:d1
                Exponent: 65537 (0x10001)
        X509v3 extensions:
            X509v3 Key Usage: critical
                Digital Signature, Key Encipherment
            X509v3 Basic Constraints: 
                CA:FALSE
            X509v3 Extended Key Usage: 
                TLS Web Server Authentication, TLS Web Client Authentication
            X509v3 Subject Key Identifier: 
                7C:DD:02:51:1D:4C:7C:1C:56:8C:2B:AC:DC:BB:15:69:D5:CF:E4:48
            X509v3 Authority Key Identifier: 
                keyid:86:F4:C6:F3:9C:68:1D:0E:6D:42:78:2A:89:D2:A0:16:07:03:F0:70

            Authority Information Access: 
                CA Issuers - URI:http://green.no/ca/tls-ca.cer

            X509v3 CRL Distribution Points: 

                Full Name:
                  URI:http://green.no/ca/tls-ca.crl

            X509v3 Subject Alternative Name: 
                DNS:green.no, DNS:www.green.no, DNS:localhost
    Signature Algorithm: sha256WithRSAEncryption
         91:4f:16:c5:a5:9d:4e:ea:0d:5f:43:e1:08:ef:aa:cc:e2:c4:
         33:e6:23:fe:0a:37:51:8b:61:48:b9:08:15:3b:2b:f4:03:76:
         9b:59:93:a0:48:1a:2f:ac:d2:13:c3:4e:50:31:fa:fc:e2:1c:
         96:ca:41:1b:c5:e8:a7:1b:2d:38:1c:fd:18:fc:ce:13:94:ee:
         70:06:18:27:83:cc:04:1e:83:c3:4c:52:0a:16:2f:a9:b5:7b:
         76:d8:cd:51:a6:cf:78:d9:a0:6b:43:54:22:bc:30:ff:10:c6:
         da:1f:75:8a:60:01:26:5c:c1:5f:0b:65:e7:72:60:11:e6:6d:
         cf:bd:ac:57:62:10:47:de:56:42:18:c3:6a:bf:10:4f:f3:0e:
         56:3d:de:09:11:67:64:fe:43:3f:6d:fc:a8:c6:ee:61:49:58:
         8c:ff:5d:77:b5:16:59:31:15:f4:c3:14:d5:8d:91:34:2b:07:
         9a:73:55:4c:91:15:5c:84:56:a8:69:f2:21:21:15:33:a2:da:
         13:92:1e:ef:8c:a7:c2:67:53:b3:e4:24:77:b5:80:8f:bf:14:
         61:95:85:a3:f0:39:63:c8:f7:b1:fb:66:a0:7f:9c:66:bc:80:
         93:45:a6:02:7f:fd:70:53:76:c1:82:49:c8:16:93:ab:72:85:
         85:85:eb:57:63:6f:a6:4d:41:97:2b:16:31:f1:61:1c:4e:61:
         17:7a:be:c3:27:17:31:fb:25:13:d2:59:50:29:24:20:bb:33:
         c2:18:2b:89:4d:02:72:cc:92:6d:53:17:58:1c:f0:d3:e8:aa:
         0a:75:ce:84:49:68:5a:75:a4:21:f3:bf:3f:fe:09:ba:2a:37:
         72:77:4c:83:61:5f:17:29:c5:29:b0:dd:cb:b2:cc:91:7b:78:
         44:ca:b8:fa:8e:3e:27:15:26:a3:ac:8e:d8:9c:3f:40:16:7d:
         89:67:3e:99:91:93:f3:18:6a:89:71:2d:98:04:b7:9e:bb:38:
         72:76:2d:04:dc:7d:9b:49:92:b3:7e:b5:ef:85:e0:7a:7f:ab:
         11:5a:fa:4f:70:57:9d:ab:58:90:9c:1e:1c:9d:cb:62:66:ce:
         f4:49:b5:77:3d:27:6c:e6:fc:94:7f:fc:f1:50:7b:ba:68:d5:
         42:2b:71:02:15:c2:09:f6:85:4c:73:f0:79:74:69:d3:28:28:
         fc:18:8b:db:7f:98:7a:b1:c6:f8:4b:ca:fb:2c:51:db:2b:c7:
         b0:32:c5:da:e8:d1:1d:66:52:c3:78:29:da:51:a3:62:d7:15:
         58:6a:f3:be:91:c7:3d:80:c2:77:1e:bf:9c:c3:67:37:0b:0d:
         99:bc:83:68:f0:31:e5:74
-----BEGIN CERTIFICATE-----
MIIGaTCCBFGgAwIBAgIUBUIMfl3pwYZoN0jPO5UBxfvKQcMwDQYJKoZIhvcNAQEL
BQAwXTELMAkGA1UEBhMCTk8xETAPBgNVBAoMCEdyZWVuIEFTMSQwIgYDVQQLDBtH
cmVlbiBDZXJ0aWZpY2F0ZSBBdXRob3JpdHkxFTATBgNVBAMMDEdyZWVuIFRMUyBD
QTAeFw0yMDA2MjAxNDU4MDlaFw0yMjA2MjAxNDU4MDlaMGUxCzAJBgNVBAYTAk5P
MREwDwYDVQQKDAhHcmVlbiBBUzEkMCIGA1UECwwbR3JlZW4gQ2VydGlmaWNhdGUg
QXV0aG9yaXR5MR0wGwYDVQQDDBRSZW50LWEtQ2FyIEFnZW50IEFwcDCCAiIwDQYJ
KoZIhvcNAQEBBQADggIPADCCAgoCggIBAN7LdPgsFekRY4Go3oGaK2kdGxtmI7Zd
+7Ui0UzxEZwHkXBDOBHQhhD/o8IA/VwfTjIcGshpr0pk1GJ6gdcWi8XkKtD/hSmJ
yepTARva54jfvpWrCQdH/TDHSPT1Hir2tb3uP1xHG2ETLd2Z+T1oQSsOv0bdLWnk
5NDbw2tBearjNxbIaIb/mY0+BvWKN1A7JqD50j8c3lwCWzMshW9OR6rRhWvaLzNP
5Kmzfr/LGgzPi4Lkni2ayr0vMnhqhcuPULHKbo3rxJwa1REmBme61u8Vsy0ft/Sq
jfsDc9Mwu1w/T+aUJedipqhMzXFpH8g77QyqM4Ug9t5Gof7a9h7zX/92WPwb4/IW
zaJZssBOYsZg2fgBPDFdbV5iKYNl3L0DNQH0OKABdvYhVgrAz/8lyr9hIfyklo8m
j2zMdv66nd15E9lxLyLZ/1WlGr8HBSGo7yrkXu97OmFZgR4j8KTkAsZe6JULsSqw
SFDv4P0XFAJJj6xVt5DOfdyqksQITubYzUABw/zzYG84SGsWhgrvjYvs6DAsuiUY
a0M/DW0gKoUg/hkdIWfWZB3gigw64nI3lVDO6kMO7IIzA4FEFEXTLg4lICfNarK7
66qslSW3zpeWZdMhziiVV0HeKvWQHP8cCH1PRFwHyz6DDAzVYotNEJJCKKzBg6FP
li0eCPtVjUPRAgMBAAGjggEXMIIBEzAOBgNVHQ8BAf8EBAMCBaAwCQYDVR0TBAIw
ADAdBgNVHSUEFjAUBggrBgEFBQcDAQYIKwYBBQUHAwIwHQYDVR0OBBYEFHzdAlEd
THwcVowrrNy7FWnVz+RIMB8GA1UdIwQYMBaAFIb0xvOcaB0ObUJ4KonSoBYHA/Bw
MDkGCCsGAQUFBwEBBC0wKzApBggrBgEFBQcwAoYdaHR0cDovL2dyZWVuLm5vL2Nh
L3Rscy1jYS5jZXIwLgYDVR0fBCcwJTAjoCGgH4YdaHR0cDovL2dyZWVuLm5vL2Nh
L3Rscy1jYS5jcmwwLAYDVR0RBCUwI4IIZ3JlZW4ubm+CDHd3dy5ncmVlbi5ub4IJ
bG9jYWxob3N0MA0GCSqGSIb3DQEBCwUAA4ICAQCRTxbFpZ1O6g1fQ+EI76rM4sQz
5iP+CjdRi2FIuQgVOyv0A3abWZOgSBovrNITw05QMfr84hyWykEbxeinGy04HP0Y
/M4TlO5wBhgng8wEHoPDTFIKFi+ptXt22M1Rps942aBrQ1QivDD/EMbaH3WKYAEm
XMFfC2XncmAR5m3PvaxXYhBH3lZCGMNqvxBP8w5WPd4JEWdk/kM/bfyoxu5hSViM
/113tRZZMRX0wxTVjZE0Kweac1VMkRVchFaoafIhIRUzotoTkh7vjKfCZ1Oz5CR3
tYCPvxRhlYWj8DljyPex+2agf5xmvICTRaYCf/1wU3bBgknIFpOrcoWFhetXY2+m
TUGXKxYx8WEcTmEXer7DJxcx+yUT0llQKSQguzPCGCuJTQJyzJJtUxdYHPDT6KoK
dc6ESWhadaQh878//gm6Kjdyd0yDYV8XKcUpsN3LssyRe3hEyrj6jj4nFSajrI7Y
nD9AFn2JZz6ZkZPzGGqJcS2YBLeeuzhydi0E3H2bSZKzfrXvheB6f6sRWvpPcFed
q1iQnB4cnctiZs70SbV3PSds5vyUf/zxUHu6aNVCK3ECFcIJ9oVMc/B5dGnTKCj8
GIvbf5h6scb4S8r7LFHbK8ewMsXa6NEdZlLDeCnaUaNi1xVYavO+kcc9gMJ3Hr+c
w2c3Cw2ZvINo8DHldA==
-----END CERTIFICATE-----
