Certificate:
    Data:
        Version: 3 (0x2)
        Serial Number:
            0a:c7:42:f3:2f:4e:be:cf:a5:07:3e:2e:fe:3f:e6:c0:74:4a:81:22
        Signature Algorithm: sha256WithRSAEncryption
        Issuer: C=NO, O=Green AS, OU=Green Certificate Authority, CN=Green TLS CA
        Validity
            Not Before: Jun 20 14:58:17 2020 GMT
            Not After : Jun 20 14:58:17 2022 GMT
        Subject: C=NO, O=Green AS, OU=Green Certificate Authority, CN=Users service
        Subject Public Key Info:
            Public Key Algorithm: rsaEncryption
                RSA Public-Key: (4096 bit)
                Modulus:
                    00:9a:62:c0:a4:ec:7d:e4:47:9b:ff:50:47:f3:7b:
                    83:f1:f4:42:b9:4b:61:79:a7:c1:b3:e6:e9:41:07:
                    84:4e:41:6a:d6:2a:e6:f8:41:8c:81:de:6f:05:58:
                    32:49:e4:55:12:93:8d:17:47:8c:47:b6:a2:b8:8f:
                    06:26:89:b3:0e:2c:a1:87:fe:98:fd:d6:e3:4d:09:
                    45:5d:d4:77:b6:1d:3d:f8:2c:9f:66:c3:d0:00:76:
                    7c:e5:36:e9:8e:39:41:0c:9e:1d:51:06:83:af:5e:
                    e8:d6:14:67:e4:3a:b5:17:31:a6:b6:f8:1e:df:56:
                    ed:8f:06:72:6a:a3:7f:dc:fd:6d:4a:9c:c9:6a:98:
                    11:ea:2d:38:f0:d3:69:15:0f:d5:0e:1c:a0:1f:60:
                    f7:aa:fc:39:00:84:e2:32:62:e2:3d:42:95:65:28:
                    29:2b:ba:84:7f:a5:d4:b0:c7:ef:4a:2c:3d:1c:f1:
                    a0:9c:fd:ee:b5:c3:1c:cf:cb:c2:7a:29:c9:83:83:
                    9b:36:d7:11:e0:6b:47:91:d5:b2:08:85:c4:d9:80:
                    16:b4:b6:12:b2:2a:48:3b:6b:2e:51:30:78:34:66:
                    df:dd:48:d6:a4:71:5a:ed:26:68:3b:2c:40:01:2f:
                    52:aa:c4:2e:52:a3:7e:4f:0f:b4:96:5f:bc:04:ef:
                    22:d0:54:50:66:d5:dc:fb:a4:32:d5:cf:bc:08:9d:
                    a4:d1:60:a6:ce:ed:09:86:b2:4d:ad:3d:e0:11:b7:
                    c6:45:3b:53:4f:22:cc:19:2c:a5:8b:a4:d0:0b:7d:
                    df:5d:80:96:d1:f9:fa:85:5c:91:9c:89:df:28:b3:
                    5e:d1:c7:91:da:fa:0f:04:a1:e5:09:37:2d:30:73:
                    c6:ee:b7:36:a2:31:e9:56:36:cf:a9:92:50:f4:06:
                    97:8f:3d:97:1a:44:22:e0:f1:8a:2f:c5:6a:03:4e:
                    0a:d6:80:fa:b9:ed:52:38:e0:be:2b:d2:8b:d9:0c:
                    f1:39:aa:c0:87:1c:71:07:5c:e4:ce:f3:37:31:f0:
                    ec:7a:f1:ff:40:4d:48:b0:da:4e:bf:09:b7:53:50:
                    d2:77:3e:75:3b:6b:e3:81:01:37:40:26:4b:ae:0e:
                    59:67:5f:ca:ee:5b:9f:57:b3:1f:37:af:bd:4d:79:
                    45:b4:26:df:bc:df:a9:15:ba:24:b6:71:ce:85:df:
                    76:08:db:b0:6f:99:ed:a4:77:8f:eb:c0:3a:41:fc:
                    46:a9:84:cc:38:b7:95:62:f4:a6:1f:25:42:bc:87:
                    55:aa:84:11:f9:7a:38:7d:f8:15:32:4c:a3:20:10:
                    39:f4:d8:5d:a1:62:e7:96:0b:ed:e9:3c:dc:35:41:
                    27:5a:1d
                Exponent: 65537 (0x10001)
        X509v3 extensions:
            X509v3 Key Usage: critical
                Digital Signature, Key Encipherment
            X509v3 Basic Constraints: 
                CA:FALSE
            X509v3 Extended Key Usage: 
                TLS Web Server Authentication, TLS Web Client Authentication
            X509v3 Subject Key Identifier: 
                91:6E:04:05:13:18:CF:06:39:61:AC:D1:FE:1D:1A:A7:E5:03:76:E7
            X509v3 Authority Key Identifier: 
                keyid:86:F4:C6:F3:9C:68:1D:0E:6D:42:78:2A:89:D2:A0:16:07:03:F0:70

            Authority Information Access: 
                CA Issuers - URI:http://green.no/ca/tls-ca.cer

            X509v3 CRL Distribution Points: 

                Full Name:
                  URI:http://green.no/ca/tls-ca.crl

            X509v3 Subject Alternative Name: 
                DNS:green.no, DNS:www.green.no, DNS:localhost
    Signature Algorithm: sha256WithRSAEncryption
         86:5b:ca:bf:ba:fb:8a:fb:7c:c2:32:1b:0a:20:94:fe:15:af:
         cd:68:be:bf:7d:1a:f8:95:0f:dc:5c:85:5c:ba:e0:30:84:8a:
         04:96:7d:ef:91:36:03:69:56:05:d7:36:d8:5a:7f:e3:86:72:
         e2:fc:21:71:f6:f2:6b:53:eb:21:18:25:fe:3e:6d:a4:c2:bf:
         1e:cb:a3:aa:c4:87:c8:7e:fe:b2:82:79:d4:3a:31:42:21:06:
         b0:fb:2c:cf:dc:20:6d:c4:53:40:91:66:d9:a2:51:00:98:d8:
         bc:0b:21:37:69:05:16:f0:fa:15:a5:7c:65:6e:cf:93:25:1d:
         cf:ed:4d:e5:e4:2c:bf:46:9c:15:fb:5b:ac:99:a7:e5:3a:b3:
         25:27:b6:82:ae:f1:80:ea:49:83:45:76:04:ee:46:f4:9b:75:
         ef:8a:5a:3d:da:26:8d:cb:b1:19:7b:05:a9:8c:ff:be:96:04:
         da:cd:76:2a:da:60:86:fb:28:4e:05:63:1d:af:69:0a:6e:81:
         b2:62:c1:97:08:e6:44:94:75:09:0f:f1:93:57:3f:80:73:c6:
         06:1a:a3:0e:e9:ed:ad:b3:32:30:7b:fa:ab:b7:2c:6f:6c:b0:
         62:9b:8a:54:31:81:7e:41:a8:76:ab:a6:a1:1d:a4:c6:33:57:
         a4:c5:7d:d8:a1:cf:26:e7:a3:73:39:59:32:e3:70:b5:1f:aa:
         9f:ec:95:c5:52:f1:ed:75:e2:53:9c:40:e7:98:21:d1:75:17:
         aa:dc:2c:aa:47:e0:77:18:d3:8a:c4:28:90:c6:85:fc:8f:47:
         fd:28:31:2b:29:e7:26:6a:63:20:36:39:67:13:76:52:47:ba:
         dd:49:54:40:c8:13:b9:62:cf:6c:dc:45:43:a9:c3:62:ad:8d:
         f0:ab:24:b4:5f:4f:86:d6:ec:6d:d3:b3:82:0f:8a:53:2e:db:
         2f:3b:c1:75:53:28:46:29:10:3e:d5:f0:8a:5c:0b:e2:85:0f:
         f9:69:c3:9b:8e:38:c0:6e:1c:68:75:48:84:77:1a:1e:df:2d:
         8e:98:94:8b:dc:12:f4:5b:2d:2a:1b:2d:9d:30:67:1a:83:78:
         b9:74:64:9b:ee:fb:d8:71:fb:90:09:99:c6:e6:bb:c7:ac:63:
         12:32:12:05:20:10:79:12:95:24:3f:c4:b8:0a:cf:06:26:f2:
         f9:c0:9c:83:9c:71:86:64:b5:08:f4:ec:8e:72:42:1d:f7:93:
         9d:49:5c:5c:ef:42:51:dc:30:02:91:06:ed:81:3e:83:97:1f:
         49:6b:a8:b7:b9:00:e3:38:d2:5c:42:6f:db:2a:f6:16:4c:fb:
         b2:5c:c2:71:52:7a:40:3f
-----BEGIN CERTIFICATE-----
MIIGYjCCBEqgAwIBAgIUCsdC8y9Ovs+lBz4u/j/mwHRKgSIwDQYJKoZIhvcNAQEL
BQAwXTELMAkGA1UEBhMCTk8xETAPBgNVBAoMCEdyZWVuIEFTMSQwIgYDVQQLDBtH
cmVlbiBDZXJ0aWZpY2F0ZSBBdXRob3JpdHkxFTATBgNVBAMMDEdyZWVuIFRMUyBD
QTAeFw0yMDA2MjAxNDU4MTdaFw0yMjA2MjAxNDU4MTdaMF4xCzAJBgNVBAYTAk5P
MREwDwYDVQQKDAhHcmVlbiBBUzEkMCIGA1UECwwbR3JlZW4gQ2VydGlmaWNhdGUg
QXV0aG9yaXR5MRYwFAYDVQQDDA1Vc2VycyBzZXJ2aWNlMIICIjANBgkqhkiG9w0B
AQEFAAOCAg8AMIICCgKCAgEAmmLApOx95Eeb/1BH83uD8fRCuUtheafBs+bpQQeE
TkFq1irm+EGMgd5vBVgySeRVEpONF0eMR7aiuI8GJomzDiyhh/6Y/dbjTQlFXdR3
th09+CyfZsPQAHZ85TbpjjlBDJ4dUQaDr17o1hRn5Dq1FzGmtvge31btjwZyaqN/
3P1tSpzJapgR6i048NNpFQ/VDhygH2D3qvw5AITiMmLiPUKVZSgpK7qEf6XUsMfv
Siw9HPGgnP3utcMcz8vCeinJg4ObNtcR4GtHkdWyCIXE2YAWtLYSsipIO2suUTB4
NGbf3UjWpHFa7SZoOyxAAS9SqsQuUqN+Tw+0ll+8BO8i0FRQZtXc+6Qy1c+8CJ2k
0WCmzu0JhrJNrT3gEbfGRTtTTyLMGSyli6TQC33fXYCW0fn6hVyRnInfKLNe0ceR
2voPBKHlCTctMHPG7rc2ojHpVjbPqZJQ9AaXjz2XGkQi4PGKL8VqA04K1oD6ue1S
OOC+K9KL2QzxOarAhxxxB1zkzvM3MfDsevH/QE1IsNpOvwm3U1DSdz51O2vjgQE3
QCZLrg5ZZ1/K7lufV7MfN6+9TXlFtCbfvN+pFboktnHOhd92CNuwb5ntpHeP68A6
QfxGqYTMOLeVYvSmHyVCvIdVqoQR+Xo4ffgVMkyjIBA59NhdoWLnlgvt6TzcNUEn
Wh0CAwEAAaOCARcwggETMA4GA1UdDwEB/wQEAwIFoDAJBgNVHRMEAjAAMB0GA1Ud
JQQWMBQGCCsGAQUFBwMBBggrBgEFBQcDAjAdBgNVHQ4EFgQUkW4EBRMYzwY5YazR
/h0ap+UDducwHwYDVR0jBBgwFoAUhvTG85xoHQ5tQngqidKgFgcD8HAwOQYIKwYB
BQUHAQEELTArMCkGCCsGAQUFBzAChh1odHRwOi8vZ3JlZW4ubm8vY2EvdGxzLWNh
LmNlcjAuBgNVHR8EJzAlMCOgIaAfhh1odHRwOi8vZ3JlZW4ubm8vY2EvdGxzLWNh
LmNybDAsBgNVHREEJTAjgghncmVlbi5ub4IMd3d3LmdyZWVuLm5vgglsb2NhbGhv
c3QwDQYJKoZIhvcNAQELBQADggIBAIZbyr+6+4r7fMIyGwoglP4Vr81ovr99GviV
D9xchVy64DCEigSWfe+RNgNpVgXXNthaf+OGcuL8IXH28mtT6yEYJf4+baTCvx7L
o6rEh8h+/rKCedQ6MUIhBrD7LM/cIG3EU0CRZtmiUQCY2LwLITdpBRbw+hWlfGVu
z5MlHc/tTeXkLL9GnBX7W6yZp+U6syUntoKu8YDqSYNFdgTuRvSbde+KWj3aJo3L
sRl7BamM/76WBNrNdiraYIb7KE4FYx2vaQpugbJiwZcI5kSUdQkP8ZNXP4BzxgYa
ow7p7a2zMjB7+qu3LG9ssGKbilQxgX5BqHarpqEdpMYzV6TFfdihzybno3M5WTLj
cLUfqp/slcVS8e114lOcQOeYIdF1F6rcLKpH4HcY04rEKJDGhfyPR/0oMSsp5yZq
YyA2OWcTdlJHut1JVEDIE7liz2zcRUOpw2KtjfCrJLRfT4bW7G3Ts4IPilMu2y87
wXVTKEYpED7V8IpcC+KFD/lpw5uOOMBuHGh1SIR3Gh7fLY6YlIvcEvRbLSobLZ0w
ZxqDeLl0ZJvu+9hx+5AJmcbmu8esYxIyEgUgEHkSlSQ/xLgKzwYm8vnAnIOccYZk
tQj07I5yQh33k51JXFzvQlHcMAKRBu2BPoOXH0lrqLe5AOM40lxCb9sq9hZM+7Jc
wnFSekA/
-----END CERTIFICATE-----
