Certificate:
    Data:
        Version: 3 (0x2)
        Serial Number:
            1b:e4:c7:79:0c:60:c7:66:0b:ca:3d:45:40:45:a6:11:54:de:c7:15
        Signature Algorithm: sha256WithRSAEncryption
        Issuer: C=NO, O=Green AS, OU=Green Certificate Authority, CN=Green TLS CA
        Validity
            Not Before: Jun 20 14:58:09 2020 GMT
            Not After : Jun 20 14:58:09 2022 GMT
        Subject: C=NO, O=Green AS, OU=Green Certificate Authority, CN=Zuul gateway
        Subject Public Key Info:
            Public Key Algorithm: rsaEncryption
                RSA Public-Key: (4096 bit)
                Modulus:
                    00:d4:57:e9:e7:86:8f:42:f7:60:cd:22:86:11:23:
                    ef:11:d1:b5:bf:49:df:e2:f2:55:77:c1:d9:12:ce:
                    82:03:a3:a7:8a:67:b6:28:d6:6f:cb:a9:8a:bd:a0:
                    bd:2b:4d:c9:7b:cf:9f:e1:33:c5:c5:78:a9:e2:01:
                    a9:06:c1:12:c7:a2:e9:38:dd:df:10:20:78:df:9c:
                    a8:95:d4:67:ea:61:05:cc:39:78:3b:84:f8:e6:b6:
                    0d:39:42:34:fd:26:62:dc:95:3e:07:3c:21:cf:12:
                    1c:95:7e:1c:5a:5e:35:e7:8f:65:24:00:68:a3:4e:
                    8d:d2:fe:29:b6:bf:7a:87:60:77:72:d6:e8:0c:82:
                    7c:a9:10:56:00:40:0d:3b:23:cb:ab:89:55:5d:10:
                    f7:f1:fd:f7:9b:a0:31:0f:fc:a8:84:70:08:bb:e5:
                    db:bf:00:9e:cc:30:75:60:f4:97:b2:f9:5c:ed:4c:
                    07:3b:9b:ae:85:d9:ec:a1:52:d4:92:4d:70:82:8e:
                    8c:a5:ba:bb:bb:49:81:59:a8:d4:23:4c:9b:36:cc:
                    ec:0b:63:5c:ee:e6:c6:3a:d8:e7:0b:3f:ed:09:9a:
                    36:1a:ee:b5:d5:e3:5c:00:2c:17:7a:fa:e1:06:53:
                    83:f4:48:9a:5f:1f:96:7d:65:50:38:dc:e9:10:ad:
                    be:e3:37:89:e2:a6:26:c6:d6:24:e3:f3:93:62:2c:
                    f8:1b:ef:6f:e9:b3:49:21:ff:8e:af:a1:85:52:05:
                    78:46:fe:b5:8e:a5:06:62:cf:b9:96:49:99:e7:d2:
                    66:b8:a5:e4:36:e1:6f:80:48:40:be:de:71:fe:f4:
                    de:00:d0:0a:97:91:d1:18:ae:9c:bd:35:d2:97:b3:
                    e7:2e:2a:f2:44:c9:c9:09:c0:58:e2:61:c5:f7:45:
                    aa:dc:fe:23:f3:3a:e2:e8:ac:5e:ed:03:0d:66:cb:
                    4b:21:0c:07:8c:3f:8e:f5:a4:52:07:ba:06:d5:57:
                    ef:74:03:e8:86:52:bf:bd:7e:8e:f7:b9:ee:dc:2e:
                    52:af:b8:55:2a:1d:d3:90:dd:6f:12:82:82:27:32:
                    bd:2d:9a:9e:60:61:52:9a:6d:73:4f:49:d7:1b:ed:
                    41:ae:6b:f6:fc:19:d1:98:dc:84:1a:0f:c5:94:b6:
                    56:2f:36:b4:40:3b:66:83:be:ac:f4:d7:44:04:d5:
                    af:14:ad:07:d0:35:d8:33:b1:6e:0a:bd:c6:13:b4:
                    ae:c5:02:c8:f5:d0:ce:72:c4:9d:ce:83:2b:18:9c:
                    44:84:91:65:42:2a:9a:ed:9b:82:45:4a:31:e8:22:
                    3d:34:57:b0:3e:96:af:52:5e:96:69:07:fe:19:e5:
                    89:b0:d5
                Exponent: 65537 (0x10001)
        X509v3 extensions:
            X509v3 Key Usage: critical
                Digital Signature, Key Encipherment
            X509v3 Basic Constraints: 
                CA:FALSE
            X509v3 Extended Key Usage: 
                TLS Web Server Authentication, TLS Web Client Authentication
            X509v3 Subject Key Identifier: 
                C3:27:41:C1:68:83:C7:B2:4B:6F:8E:70:99:D6:B5:41:08:9C:80:36
            X509v3 Authority Key Identifier: 
                keyid:86:F4:C6:F3:9C:68:1D:0E:6D:42:78:2A:89:D2:A0:16:07:03:F0:70

            Authority Information Access: 
                CA Issuers - URI:http://green.no/ca/tls-ca.cer

            X509v3 CRL Distribution Points: 

                Full Name:
                  URI:http://green.no/ca/tls-ca.crl

            X509v3 Subject Alternative Name: 
                DNS:green.no, DNS:www.green.no, DNS:localhost
    Signature Algorithm: sha256WithRSAEncryption
         42:2d:63:f8:95:ba:50:93:e3:0a:c2:2b:af:79:fa:01:47:2f:
         13:5c:29:97:d4:c2:14:aa:7e:d9:4e:94:23:c5:a3:4d:17:fc:
         69:61:fd:dd:b4:5f:c5:d2:ea:4b:f2:6f:5b:66:6a:be:53:60:
         02:b8:a8:27:c3:34:8f:02:b8:e8:78:25:82:9a:44:a8:eb:07:
         44:e8:58:d7:07:8a:b3:12:a1:ac:96:96:d4:c5:b0:ac:40:ff:
         ae:37:e0:a3:19:cd:63:b4:ef:58:7b:d5:8e:83:61:8e:ef:6f:
         92:7d:47:2b:b9:0f:48:4c:57:a5:e0:95:05:f0:3f:92:73:b6:
         92:5a:83:f1:53:08:8d:71:f5:ec:bc:60:d2:93:1d:10:e4:fc:
         a5:cd:a5:cc:62:55:aa:38:e9:0b:28:61:f9:c7:e9:4f:d5:4d:
         3c:d8:df:7b:7e:e2:e1:b3:13:fe:f1:77:de:17:70:d3:b4:4c:
         ea:36:0c:a4:a2:87:9e:48:99:52:8c:1f:7d:18:22:c6:91:8a:
         5e:22:f8:6a:92:fd:c1:10:6a:b0:c9:fd:c5:a2:cb:92:82:fa:
         64:fa:3c:33:a4:2f:37:e0:17:ae:d3:d4:6c:54:50:8e:9d:1e:
         b9:dc:a5:df:fa:a4:c0:d3:b9:e6:47:1e:95:b6:6c:f3:c7:45:
         4b:06:a5:43:3f:e5:3f:6c:09:82:50:66:f4:09:32:c8:b7:5f:
         46:a3:57:4f:1b:b1:b2:c0:6b:93:97:d3:21:f8:ef:e0:6a:a4:
         8b:b2:94:a3:7d:db:96:40:53:16:90:cf:e4:e1:de:2d:e1:6f:
         0d:fc:be:0d:b5:93:dd:3f:ba:2d:e5:49:e2:66:f5:cf:e9:8f:
         03:57:05:7b:6d:8b:9f:f3:ec:6f:5b:18:d8:f4:87:c1:5e:b9:
         14:b2:3f:9e:dc:d6:95:83:33:e0:1e:21:ef:11:73:36:9f:ff:
         37:0c:93:9a:e2:df:3b:72:c4:91:f3:24:82:76:10:53:45:64:
         61:41:ec:84:3a:9e:e4:6f:16:26:62:18:7e:ac:bd:47:8c:38:
         cf:7b:e1:57:a8:77:1b:47:58:89:4c:03:4a:22:da:c3:f5:3e:
         74:c6:3f:37:08:4d:71:0f:b0:c0:1e:59:19:60:5c:94:1e:f2:
         51:29:0a:10:f7:11:3e:fd:3b:eb:3e:82:63:d5:08:a5:0f:de:
         0e:9a:c1:91:2a:b9:ce:aa:1a:8a:c8:ce:cd:08:a9:30:20:d3:
         f0:42:38:87:6c:f4:0e:01:ee:17:87:f7:55:f9:3d:d6:d2:81:
         ad:a1:6d:46:72:0a:ca:fd:f4:25:3a:19:fd:42:c1:2d:8b:3f:
         7f:07:a7:30:67:c1:33:6d
-----BEGIN CERTIFICATE-----
MIIGYTCCBEmgAwIBAgIUG+THeQxgx2YLyj1FQEWmEVTexxUwDQYJKoZIhvcNAQEL
BQAwXTELMAkGA1UEBhMCTk8xETAPBgNVBAoMCEdyZWVuIEFTMSQwIgYDVQQLDBtH
cmVlbiBDZXJ0aWZpY2F0ZSBBdXRob3JpdHkxFTATBgNVBAMMDEdyZWVuIFRMUyBD
QTAeFw0yMDA2MjAxNDU4MDlaFw0yMjA2MjAxNDU4MDlaMF0xCzAJBgNVBAYTAk5P
MREwDwYDVQQKDAhHcmVlbiBBUzEkMCIGA1UECwwbR3JlZW4gQ2VydGlmaWNhdGUg
QXV0aG9yaXR5MRUwEwYDVQQDDAxadXVsIGdhdGV3YXkwggIiMA0GCSqGSIb3DQEB
AQUAA4ICDwAwggIKAoICAQDUV+nnho9C92DNIoYRI+8R0bW/Sd/i8lV3wdkSzoID
o6eKZ7Yo1m/LqYq9oL0rTcl7z5/hM8XFeKniAakGwRLHouk43d8QIHjfnKiV1Gfq
YQXMOXg7hPjmtg05QjT9JmLclT4HPCHPEhyVfhxaXjXnj2UkAGijTo3S/im2v3qH
YHdy1ugMgnypEFYAQA07I8uriVVdEPfx/feboDEP/KiEcAi75du/AJ7MMHVg9Jey
+VztTAc7m66F2eyhUtSSTXCCjoyluru7SYFZqNQjTJs2zOwLY1zu5sY62OcLP+0J
mjYa7rXV41wALBd6+uEGU4P0SJpfH5Z9ZVA43OkQrb7jN4nipibG1iTj85NiLPgb
72/ps0kh/46voYVSBXhG/rWOpQZiz7mWSZnn0ma4peQ24W+ASEC+3nH+9N4A0AqX
kdEYrpy9NdKXs+cuKvJEyckJwFjiYcX3Rarc/iPzOuLorF7tAw1my0shDAeMP471
pFIHugbVV+90A+iGUr+9fo73ue7cLlKvuFUqHdOQ3W8SgoInMr0tmp5gYVKabXNP
Sdcb7UGua/b8GdGY3IQaD8WUtlYvNrRAO2aDvqz010QE1a8UrQfQNdgzsW4KvcYT
tK7FAsj10M5yxJ3OgysYnESEkWVCKprtm4JFSjHoIj00V7A+lq9SXpZpB/4Z5Ymw
1QIDAQABo4IBFzCCARMwDgYDVR0PAQH/BAQDAgWgMAkGA1UdEwQCMAAwHQYDVR0l
BBYwFAYIKwYBBQUHAwEGCCsGAQUFBwMCMB0GA1UdDgQWBBTDJ0HBaIPHsktvjnCZ
1rVBCJyANjAfBgNVHSMEGDAWgBSG9MbznGgdDm1CeCqJ0qAWBwPwcDA5BggrBgEF
BQcBAQQtMCswKQYIKwYBBQUHMAKGHWh0dHA6Ly9ncmVlbi5uby9jYS90bHMtY2Eu
Y2VyMC4GA1UdHwQnMCUwI6AhoB+GHWh0dHA6Ly9ncmVlbi5uby9jYS90bHMtY2Eu
Y3JsMCwGA1UdEQQlMCOCCGdyZWVuLm5vggx3d3cuZ3JlZW4ubm+CCWxvY2FsaG9z
dDANBgkqhkiG9w0BAQsFAAOCAgEAQi1j+JW6UJPjCsIrr3n6AUcvE1wpl9TCFKp+
2U6UI8WjTRf8aWH93bRfxdLqS/JvW2ZqvlNgArioJ8M0jwK46HglgppEqOsHROhY
1weKsxKhrJaW1MWwrED/rjfgoxnNY7TvWHvVjoNhju9vkn1HK7kPSExXpeCVBfA/
knO2klqD8VMIjXH17Lxg0pMdEOT8pc2lzGJVqjjpCyhh+cfpT9VNPNjfe37i4bMT
/vF33hdw07RM6jYMpKKHnkiZUowffRgixpGKXiL4apL9wRBqsMn9xaLLkoL6ZPo8
M6QvN+AXrtPUbFRQjp0eudyl3/qkwNO55kcelbZs88dFSwalQz/lP2wJglBm9Aky
yLdfRqNXTxuxssBrk5fTIfjv4Gqki7KUo33blkBTFpDP5OHeLeFvDfy+DbWT3T+6
LeVJ4mb1z+mPA1cFe22Ln/Psb1sY2PSHwV65FLI/ntzWlYMz4B4h7xFzNp//NwyT
muLfO3LEkfMkgnYQU0VkYUHshDqe5G8WJmIYfqy9R4w4z3vhV6h3G0dYiUwDSiLa
w/U+dMY/NwhNcQ+wwB5ZGWBclB7yUSkKEPcRPv076z6CY9UIpQ/eDprBkSq5zqoa
isjOzQipMCDT8EI4h2z0DgHuF4f3Vfk91tKBraFtRnIKyv30JToZ/ULBLYs/fwen
MGfBM20=
-----END CERTIFICATE-----
