Certificate:
    Data:
        Version: 3 (0x2)
        Serial Number:
            2a:22:13:df:73:d0:e4:97:20:f4:fb:e9:81:83:06:3f:c4:41:b4:1f
        Signature Algorithm: sha256WithRSAEncryption
        Issuer: C=NO, O=Green AS, OU=Green Certificate Authority, CN=Green TLS CA
        Validity
            Not Before: Jun 20 14:58:09 2020 GMT
            Not After : Jun 20 14:58:09 2022 GMT
        Subject: C=NO, O=Green AS, OU=Green Certificate Authority, CN=Advertisements service
        Subject Public Key Info:
            Public Key Algorithm: rsaEncryption
                RSA Public-Key: (4096 bit)
                Modulus:
                    00:be:79:ba:cc:bc:04:9a:f1:da:c3:c0:dc:f4:3d:
                    93:15:de:70:27:fe:e5:58:e8:9b:bf:35:60:40:b1:
                    89:ae:a9:e3:07:4a:1f:0d:9d:90:a7:8b:75:80:dd:
                    8d:42:7a:8c:b8:2f:07:e0:7e:3d:ef:02:d9:0d:bc:
                    63:8b:98:2d:32:d1:6d:f3:47:fc:8a:ce:fc:3b:2b:
                    74:6e:3f:c8:28:9a:d7:11:02:b0:a6:e2:5a:f2:c6:
                    b7:a0:b4:5b:e0:1c:9b:5a:2e:0d:32:aa:b6:07:d4:
                    7b:6e:c9:ea:d0:3d:eb:2e:43:a8:3d:f3:68:65:78:
                    74:bc:f8:c3:f2:2d:a6:f8:af:20:ac:d5:68:6e:95:
                    7a:40:5f:a2:47:a5:bc:71:42:e4:6f:59:f1:b2:de:
                    d1:5d:a9:d0:8f:33:6d:e6:86:55:13:ae:24:31:15:
                    9b:74:91:ff:99:b5:55:55:d0:54:31:ef:dd:8d:6d:
                    b7:a7:49:0c:fb:fc:77:79:28:e0:37:bc:d8:33:53:
                    d1:e9:f1:3a:0e:95:ad:24:b5:4c:35:ee:dd:2c:6d:
                    8b:d8:c1:94:84:12:22:e7:48:4a:4d:47:fb:55:55:
                    eb:51:f6:34:eb:c9:b5:04:90:11:c7:ae:14:a8:75:
                    5c:cf:16:3b:24:4b:99:cb:1e:60:af:a5:94:13:85:
                    31:ae:13:69:85:9e:74:af:d9:4f:2c:3c:d7:d4:45:
                    cc:78:2e:b4:a6:fb:9c:3a:88:79:33:bc:22:d7:d1:
                    09:b6:e0:d4:93:f7:ac:8d:2c:01:3d:86:b9:e1:f2:
                    7b:3e:85:34:fd:f0:50:f8:dc:07:b1:42:51:a1:df:
                    53:9a:d9:e4:62:4a:0a:59:c9:89:e8:4f:90:84:27:
                    db:c8:66:d8:ca:1a:d7:da:70:b8:69:fa:8e:8d:3f:
                    99:58:1e:cb:05:6a:62:d0:26:cb:1e:da:5e:2b:d4:
                    89:cf:0a:75:41:9e:ab:27:b1:94:95:6d:e7:6a:ff:
                    7d:d3:76:0c:c3:75:9e:d8:38:00:72:f6:a4:6f:7d:
                    9c:22:34:c1:38:47:ac:70:f7:2f:29:73:d2:86:a6:
                    e7:ce:92:ca:e5:f4:af:4d:4d:a3:70:93:79:f9:4a:
                    65:eb:90:fc:ed:08:79:3b:ac:f0:58:37:58:61:bd:
                    40:bf:56:1a:74:1a:44:2c:5e:4e:59:5b:f1:ca:1f:
                    54:19:fd:c3:21:a8:c2:96:80:2c:79:c5:6f:37:23:
                    fd:1e:87:df:9e:eb:26:88:79:ac:44:3e:68:b2:54:
                    13:50:95:bb:d2:04:d2:6d:e2:92:64:ce:d5:68:f4:
                    d7:5d:13:fc:1f:85:b0:85:17:ad:a2:c2:00:0b:ad:
                    7c:f3:87
                Exponent: 65537 (0x10001)
        X509v3 extensions:
            X509v3 Key Usage: critical
                Digital Signature, Key Encipherment
            X509v3 Basic Constraints: 
                CA:FALSE
            X509v3 Extended Key Usage: 
                TLS Web Server Authentication, TLS Web Client Authentication
            X509v3 Subject Key Identifier: 
                2C:DF:85:1B:69:D1:04:0F:AB:1C:25:C1:74:65:93:F6:F1:46:34:B5
            X509v3 Authority Key Identifier: 
                keyid:86:F4:C6:F3:9C:68:1D:0E:6D:42:78:2A:89:D2:A0:16:07:03:F0:70

            Authority Information Access: 
                CA Issuers - URI:http://green.no/ca/tls-ca.cer

            X509v3 CRL Distribution Points: 

                Full Name:
                  URI:http://green.no/ca/tls-ca.crl

            X509v3 Subject Alternative Name: 
                DNS:green.no, DNS:www.green.no, DNS:localhost
    Signature Algorithm: sha256WithRSAEncryption
         1f:32:6c:d7:20:6d:c3:77:28:be:ff:1b:48:c0:4d:5a:91:43:
         e2:a4:69:fe:1c:b4:4b:94:d4:ac:6d:c8:e0:c2:a4:8a:21:89:
         06:82:f3:fb:ba:bd:be:c9:98:6d:9e:a8:7e:e6:07:11:5b:f9:
         9e:f1:46:db:30:78:6f:6b:68:44:3c:ab:48:70:69:59:99:af:
         d2:d4:77:05:3f:8a:fe:0c:0e:64:22:b4:89:d7:29:8c:5c:7f:
         4c:17:d5:13:5a:bf:6a:9e:ea:92:2f:52:3a:70:f1:ae:1b:7c:
         ae:2c:dd:d0:5b:56:c5:81:95:44:8d:dc:a4:b6:71:f9:29:c8:
         8a:5e:fb:49:7b:0e:5b:c2:a7:60:9b:8c:34:65:d6:c9:a9:94:
         9c:b1:4f:3f:0e:38:41:65:10:10:2c:3b:bb:ce:80:b4:63:ab:
         e1:8d:5f:34:8d:fd:1b:59:2f:72:f2:90:79:79:7a:76:39:a8:
         94:92:56:4b:08:cf:a8:83:bc:d5:2d:cb:70:fb:11:c4:42:94:
         11:f6:a4:8e:c4:fa:e1:f5:2d:25:db:fd:66:c3:93:37:6c:58:
         92:05:78:5d:0c:2b:5e:14:a6:08:2c:59:c8:f9:d5:45:24:71:
         21:4d:f7:ab:b4:5a:a4:64:57:63:13:05:a8:06:cb:f1:c5:21:
         e6:e9:ec:f9:e1:35:f4:59:29:b0:b0:45:93:d2:44:2a:a3:47:
         0f:8e:f6:f1:a5:dd:24:9f:e4:cf:87:c0:5a:9b:cb:8a:1e:9e:
         62:e1:20:03:c9:8a:d8:4a:00:bc:f2:1e:9c:93:c5:6d:b0:f6:
         a0:df:45:90:85:56:e4:20:8e:2d:33:f6:48:93:0c:69:86:64:
         86:f4:d9:4d:61:b5:9b:d3:82:86:db:2a:99:a1:fa:1c:02:54:
         63:1e:6c:5e:f4:57:41:71:a2:7e:ba:f2:3c:f4:d1:c8:a9:bb:
         41:f2:ce:9f:83:56:a1:08:a0:56:e0:81:7b:de:db:62:a3:d2:
         5c:ae:16:96:92:8c:7d:1c:d8:f6:2c:f7:d6:19:e0:cd:2f:19:
         57:cd:ab:80:1b:3d:df:dc:13:a2:b1:9a:42:cb:03:fe:63:b1:
         90:64:f6:f0:b7:5a:67:64:0a:67:a6:62:f1:a9:eb:a8:6c:60:
         78:f9:96:ac:28:10:cd:cc:b4:04:ff:c7:ef:30:14:df:08:33:
         a5:35:96:1f:f5:65:4b:03:15:7b:86:f3:61:c4:77:23:aa:0d:
         c7:df:48:7b:bf:e5:3e:b0:c7:9e:e3:c6:1f:dd:94:d3:96:ee:
         67:75:47:c4:66:46:50:ae:b0:8f:4e:f0:17:37:9c:12:9d:05:
         3e:d2:df:56:7d:21:85:bb
-----BEGIN CERTIFICATE-----
MIIGazCCBFOgAwIBAgIUKiIT33PQ5Jcg9PvpgYMGP8RBtB8wDQYJKoZIhvcNAQEL
BQAwXTELMAkGA1UEBhMCTk8xETAPBgNVBAoMCEdyZWVuIEFTMSQwIgYDVQQLDBtH
cmVlbiBDZXJ0aWZpY2F0ZSBBdXRob3JpdHkxFTATBgNVBAMMDEdyZWVuIFRMUyBD
QTAeFw0yMDA2MjAxNDU4MDlaFw0yMjA2MjAxNDU4MDlaMGcxCzAJBgNVBAYTAk5P
MREwDwYDVQQKDAhHcmVlbiBBUzEkMCIGA1UECwwbR3JlZW4gQ2VydGlmaWNhdGUg
QXV0aG9yaXR5MR8wHQYDVQQDDBZBZHZlcnRpc2VtZW50cyBzZXJ2aWNlMIICIjAN
BgkqhkiG9w0BAQEFAAOCAg8AMIICCgKCAgEAvnm6zLwEmvHaw8Dc9D2TFd5wJ/7l
WOibvzVgQLGJrqnjB0ofDZ2Qp4t1gN2NQnqMuC8H4H497wLZDbxji5gtMtFt80f8
is78Oyt0bj/IKJrXEQKwpuJa8sa3oLRb4BybWi4NMqq2B9R7bsnq0D3rLkOoPfNo
ZXh0vPjD8i2m+K8grNVobpV6QF+iR6W8cULkb1nxst7RXanQjzNt5oZVE64kMRWb
dJH/mbVVVdBUMe/djW23p0kM+/x3eSjgN7zYM1PR6fE6DpWtJLVMNe7dLG2L2MGU
hBIi50hKTUf7VVXrUfY068m1BJARx64UqHVczxY7JEuZyx5gr6WUE4UxrhNphZ50
r9lPLDzX1EXMeC60pvucOoh5M7wi19EJtuDUk/esjSwBPYa54fJ7PoU0/fBQ+NwH
sUJRod9TmtnkYkoKWcmJ6E+QhCfbyGbYyhrX2nC4afqOjT+ZWB7LBWpi0CbLHtpe
K9SJzwp1QZ6rJ7GUlW3nav9903YMw3We2DgAcvakb32cIjTBOEescPcvKXPShqbn
zpLK5fSvTU2jcJN5+Upl65D87Qh5O6zwWDdYYb1Av1YadBpELF5OWVvxyh9UGf3D
IajCloAsecVvNyP9HoffnusmiHmsRD5oslQTUJW70gTSbeKSZM7VaPTXXRP8H4Ww
hRetosIAC61884cCAwEAAaOCARcwggETMA4GA1UdDwEB/wQEAwIFoDAJBgNVHRME
AjAAMB0GA1UdJQQWMBQGCCsGAQUFBwMBBggrBgEFBQcDAjAdBgNVHQ4EFgQULN+F
G2nRBA+rHCXBdGWT9vFGNLUwHwYDVR0jBBgwFoAUhvTG85xoHQ5tQngqidKgFgcD
8HAwOQYIKwYBBQUHAQEELTArMCkGCCsGAQUFBzAChh1odHRwOi8vZ3JlZW4ubm8v
Y2EvdGxzLWNhLmNlcjAuBgNVHR8EJzAlMCOgIaAfhh1odHRwOi8vZ3JlZW4ubm8v
Y2EvdGxzLWNhLmNybDAsBgNVHREEJTAjgghncmVlbi5ub4IMd3d3LmdyZWVuLm5v
gglsb2NhbGhvc3QwDQYJKoZIhvcNAQELBQADggIBAB8ybNcgbcN3KL7/G0jATVqR
Q+Kkaf4ctEuU1KxtyODCpIohiQaC8/u6vb7JmG2eqH7mBxFb+Z7xRtsweG9raEQ8
q0hwaVmZr9LUdwU/iv4MDmQitInXKYxcf0wX1RNav2qe6pIvUjpw8a4bfK4s3dBb
VsWBlUSN3KS2cfkpyIpe+0l7DlvCp2CbjDRl1smplJyxTz8OOEFlEBAsO7vOgLRj
q+GNXzSN/RtZL3LykHl5enY5qJSSVksIz6iDvNUty3D7EcRClBH2pI7E+uH1LSXb
/WbDkzdsWJIFeF0MK14UpggsWcj51UUkcSFN96u0WqRkV2MTBagGy/HFIebp7Pnh
NfRZKbCwRZPSRCqjRw+O9vGl3SSf5M+HwFqby4oenmLhIAPJithKALzyHpyTxW2w
9qDfRZCFVuQgji0z9kiTDGmGZIb02U1htZvTgobbKpmh+hwCVGMebF70V0Fxon66
8jz00cipu0Hyzp+DVqEIoFbggXve22Kj0lyuFpaSjH0c2PYs99YZ4M0vGVfNq4Ab
Pd/cE6KxmkLLA/5jsZBk9vC3WmdkCmemYvGp66hsYHj5lqwoEM3MtAT/x+8wFN8I
M6U1lh/1ZUsDFXuG82HEdyOqDcffSHu/5T6wx57jxh/dlNOW7md1R8RmRlCusI9O
8Bc3nBKdBT7S31Z9IYW7
-----END CERTIFICATE-----
