Certificate:
    Data:
        Version: 3 (0x2)
        Serial Number:
            2d:72:dc:f3:a8:20:82:ab:27:df:93:6a:4f:e6:04:c0:52:94:a9:34
        Signature Algorithm: sha256WithRSAEncryption
        Issuer: C=NO, O=Green AS, OU=Green Certificate Authority, CN=Green TLS CA
        Validity
            Not Before: May 20 18:15:06 2020 GMT
            Not After : May 20 18:15:06 2022 GMT
        Subject: C=NO, O=Green AS, OU=Green Certificate Authority, CN=Team 29 Main App
        Subject Public Key Info:
            Public Key Algorithm: rsaEncryption
                RSA Public-Key: (4096 bit)
                Modulus:
                    00:be:10:74:eb:fd:cd:02:f4:63:7b:04:05:b2:67:
                    c1:d3:ae:8e:57:28:7e:96:31:2d:a2:62:9b:26:cf:
                    e9:ff:37:cc:df:27:c2:95:cc:97:12:ed:d7:5e:ec:
                    65:da:11:2a:4d:fe:25:6f:e8:57:1a:1a:cc:ef:d6:
                    a0:03:2b:c8:fa:5e:2c:4b:a0:bd:05:8a:75:40:7d:
                    6a:63:6d:98:7d:c2:29:bf:e5:30:ad:20:9b:0d:c8:
                    c9:2e:92:1f:95:bf:d6:1e:6a:23:7a:0e:91:90:6b:
                    00:f9:ca:ef:62:8b:2d:46:d6:1b:54:ca:53:e5:3b:
                    a4:a9:a7:b0:16:76:6d:ba:17:f3:6f:d7:12:5d:2f:
                    eb:f3:84:b3:7d:55:22:cd:dd:50:49:ea:68:1a:ed:
                    67:72:47:9a:f6:8b:41:51:a5:7b:67:b7:f9:a1:e0:
                    99:71:a9:aa:ae:9e:f0:3f:e7:36:7c:09:f4:fe:13:
                    0c:c3:68:d9:a4:7e:a5:5f:8c:2d:19:b9:32:37:be:
                    ff:73:90:66:70:c1:10:d8:94:76:79:41:45:bc:aa:
                    88:b6:dd:81:11:4a:e6:c6:a2:3e:46:8f:7c:57:ec:
                    06:7d:80:86:00:d0:c1:fc:cf:e0:be:c9:ea:f2:5b:
                    89:1f:5d:37:eb:ba:44:db:02:fc:0e:39:5f:27:59:
                    8e:61:1e:aa:ca:7d:f4:73:af:8a:50:8c:05:37:53:
                    16:c6:c8:a1:b0:a5:79:f0:2c:2a:c0:41:ae:29:b6:
                    b4:f7:d5:ac:f5:7f:1b:b0:d8:3c:72:aa:dc:83:95:
                    c0:e4:86:ca:ed:d3:60:a0:c7:6d:a5:47:64:36:26:
                    57:36:c7:a0:40:dc:26:ab:63:fe:dc:c5:2e:1f:3a:
                    43:fc:f1:a6:39:69:8c:33:d7:2e:2c:67:f1:c2:3b:
                    00:b0:47:b9:e1:0e:7b:27:03:a8:34:10:c1:af:6e:
                    21:03:26:9c:dc:b9:d9:fb:3c:2c:0a:84:10:ca:58:
                    c5:b4:05:b8:90:dd:19:0f:cb:89:56:b9:de:9e:cc:
                    28:9c:68:de:3c:54:24:f3:f0:55:b2:ea:12:b7:88:
                    2b:c0:a5:20:d1:a4:99:7b:e7:8b:f3:95:bb:65:af:
                    72:3a:12:d5:fa:a4:e2:00:e9:89:74:fa:75:1d:f7:
                    98:a0:4d:fa:92:dc:3e:31:b2:26:93:2d:25:66:b0:
                    5b:9c:e2:af:76:fb:1e:30:f1:7a:ab:14:60:65:ef:
                    cd:9f:ed:30:cc:78:98:a0:b5:5b:38:04:1c:0f:58:
                    22:16:d7:5e:ef:31:90:60:e2:2b:2a:4b:31:1f:ea:
                    cf:ac:1a:12:31:94:fb:30:2b:6d:8b:80:a2:3b:ee:
                    0d:95:27
                Exponent: 65537 (0x10001)
        X509v3 extensions:
            X509v3 Key Usage: critical
                Digital Signature
            X509v3 Basic Constraints: 
                CA:FALSE
            X509v3 Extended Key Usage: 
                TLS Web Client Authentication
            X509v3 Subject Key Identifier: 
                6C:6F:A6:0D:8C:39:EE:27:83:99:44:B7:B4:4D:2E:7E:DD:AD:EE:62
            X509v3 Authority Key Identifier: 
                keyid:EB:BF:1B:31:64:45:6D:05:E0:DB:15:6C:AE:FC:7B:F8:30:20:3F:33

            Authority Information Access: 
                CA Issuers - URI:http://green.no/ca/tls-ca.cer

            X509v3 CRL Distribution Points: 

                Full Name:
                  URI:http://green.no/ca/tls-ca.crl

    Signature Algorithm: sha256WithRSAEncryption
         1b:ed:25:68:94:d1:e3:6e:5e:d5:f3:41:df:ab:cb:2a:f2:0e:
         6f:5d:83:a4:10:7b:bc:a7:90:9e:60:4e:4f:e9:eb:1a:df:4b:
         82:3d:b7:a8:c7:fe:bf:9c:b9:7f:c2:06:9e:c3:07:1d:98:d8:
         fa:24:e5:be:69:21:64:40:98:1c:75:1f:2c:d3:d9:49:fc:a0:
         47:d5:1f:ca:70:ca:32:8f:e1:fa:58:a9:cc:86:59:20:be:26:
         99:ee:ea:de:28:6c:d7:94:c6:6d:23:ba:9b:2c:ae:84:99:e8:
         db:ed:6b:2a:6a:a7:3a:15:ac:31:fa:e0:1b:74:84:e6:b5:0a:
         87:ec:2a:be:54:3b:30:61:03:76:32:d5:b3:f3:f5:47:4c:c0:
         28:fd:1b:fe:fb:d3:50:f3:a6:62:4b:ee:d5:ea:b4:54:06:7e:
         76:79:3a:c3:05:90:09:a1:65:e2:7a:d7:a7:c0:2b:d6:72:83:
         6f:0b:53:21:5c:85:93:7a:28:ef:d1:62:df:16:a7:d3:d3:19:
         c0:5e:0c:81:96:33:a1:d9:ed:89:3a:9e:8e:68:72:0a:d2:ad:
         45:f1:7e:ed:19:58:ec:3b:4e:70:60:5c:ae:b8:3c:9d:ed:d9:
         aa:05:0b:ed:84:66:04:0c:7c:6a:f2:ab:45:83:2d:7c:5d:2b:
         ab:1d:da:91:cd:ce:df:83:2a:e1:f8:f1:36:b1:a1:0a:85:b7:
         11:9e:55:0a:92:a0:82:c1:35:cc:e1:c6:f1:7a:87:85:7a:af:
         97:a1:2f:5c:55:83:e3:22:e8:dd:40:a4:cd:ed:17:97:22:d5:
         80:22:11:de:f2:7c:0a:d6:a8:ba:b4:5e:e3:d9:a4:62:f6:86:
         5a:17:e2:3a:11:eb:67:24:55:db:00:4a:95:cb:38:36:f7:a3:
         93:74:61:a4:65:d9:6b:5f:73:1e:08:08:a4:5d:78:9e:bb:02:
         bb:eb:75:7c:10:0c:ea:c2:d9:ad:f9:c6:ef:d0:28:c9:ab:65:
         6b:5e:26:25:1a:ae:0e:49:78:6e:a4:29:60:1a:4f:f7:97:47:
         77:28:3d:29:f1:d0:32:42:c7:62:11:2d:e6:96:af:a6:5a:9f:
         97:14:1b:77:23:a2:d0:18:ec:41:00:d0:15:83:28:12:4c:e2:
         13:92:db:30:52:ce:b3:7f:6c:fb:cc:0b:ca:b8:69:ab:b1:7e:
         9e:b7:f3:55:0a:32:34:45:33:ff:c3:4d:1e:ad:2a:a0:1f:c4:
         bf:39:95:92:01:1f:e1:3a:9f:10:00:bd:26:b8:1d:08:a1:29:
         25:12:87:36:8c:bb:79:48:84:40:f0:cf:f2:2b:b6:aa:55:bb:
         32:7b:0e:b2:8a:23:75:95
-----BEGIN CERTIFICATE-----
MIIGKzCCBBOgAwIBAgIULXLc86gggqsn35NqT+YEwFKUqTQwDQYJKoZIhvcNAQEL
BQAwXTELMAkGA1UEBhMCTk8xETAPBgNVBAoMCEdyZWVuIEFTMSQwIgYDVQQLDBtH
cmVlbiBDZXJ0aWZpY2F0ZSBBdXRob3JpdHkxFTATBgNVBAMMDEdyZWVuIFRMUyBD
QTAeFw0yMDA1MjAxODE1MDZaFw0yMjA1MjAxODE1MDZaMGExCzAJBgNVBAYTAk5P
MREwDwYDVQQKDAhHcmVlbiBBUzEkMCIGA1UECwwbR3JlZW4gQ2VydGlmaWNhdGUg
QXV0aG9yaXR5MRkwFwYDVQQDDBBUZWFtIDI5IE1haW4gQXBwMIICIjANBgkqhkiG
9w0BAQEFAAOCAg8AMIICCgKCAgEAvhB06/3NAvRjewQFsmfB066OVyh+ljEtomKb
Js/p/zfM3yfClcyXEu3XXuxl2hEqTf4lb+hXGhrM79agAyvI+l4sS6C9BYp1QH1q
Y22YfcIpv+UwrSCbDcjJLpIflb/WHmojeg6RkGsA+crvYostRtYbVMpT5Tukqaew
FnZtuhfzb9cSXS/r84SzfVUizd1QSepoGu1nckea9otBUaV7Z7f5oeCZcamqrp7w
P+c2fAn0/hMMw2jZpH6lX4wtGbkyN77/c5BmcMEQ2JR2eUFFvKqItt2BEUrmxqI+
Ro98V+wGfYCGANDB/M/gvsnq8luJH10367pE2wL8DjlfJ1mOYR6qyn30c6+KUIwF
N1MWxsihsKV58CwqwEGuKba099Ws9X8bsNg8cqrcg5XA5IbK7dNgoMdtpUdkNiZX
NsegQNwmq2P+3MUuHzpD/PGmOWmMM9cuLGfxwjsAsEe54Q57JwOoNBDBr24hAyac
3LnZ+zwsCoQQyljFtAW4kN0ZD8uJVrnenswonGjePFQk8/BVsuoSt4grwKUg0aSZ
e+eL85W7Za9yOhLV+qTiAOmJdPp1HfeYoE36ktw+MbImky0lZrBbnOKvdvseMPF6
qxRgZe/Nn+0wzHiYoLVbOAQcD1giFtde7zGQYOIrKksxH+rPrBoSMZT7MCtti4Ci
O+4NlScCAwEAAaOB3jCB2zAOBgNVHQ8BAf8EBAMCB4AwCQYDVR0TBAIwADATBgNV
HSUEDDAKBggrBgEFBQcDAjAdBgNVHQ4EFgQUbG+mDYw57ieDmUS3tE0uft2t7mIw
HwYDVR0jBBgwFoAU678bMWRFbQXg2xVsrvx7+DAgPzMwOQYIKwYBBQUHAQEELTAr
MCkGCCsGAQUFBzAChh1odHRwOi8vZ3JlZW4ubm8vY2EvdGxzLWNhLmNlcjAuBgNV
HR8EJzAlMCOgIaAfhh1odHRwOi8vZ3JlZW4ubm8vY2EvdGxzLWNhLmNybDANBgkq
hkiG9w0BAQsFAAOCAgEAG+0laJTR425e1fNB36vLKvIOb12DpBB7vKeQnmBOT+nr
Gt9Lgj23qMf+v5y5f8IGnsMHHZjY+iTlvmkhZECYHHUfLNPZSfygR9UfynDKMo/h
+lipzIZZIL4mme7q3ihs15TGbSO6myyuhJno2+1rKmqnOhWsMfrgG3SE5rUKh+wq
vlQ7MGEDdjLVs/P1R0zAKP0b/vvTUPOmYkvu1eq0VAZ+dnk6wwWQCaFl4nrXp8Ar
1nKDbwtTIVyFk3oo79Fi3xan09MZwF4MgZYzodntiTqejmhyCtKtRfF+7RlY7DtO
cGBcrrg8ne3ZqgUL7YRmBAx8avKrRYMtfF0rqx3akc3O34Mq4fjxNrGhCoW3EZ5V
CpKggsE1zOHG8XqHhXqvl6EvXFWD4yLo3UCkze0XlyLVgCIR3vJ8CtaourRe49mk
YvaGWhfiOhHrZyRV2wBKlcs4Nvejk3RhpGXZa19zHggIpF14nrsCu+t1fBAM6sLZ
rfnG79Aoyatla14mJRquDkl4bqQpYBpP95dHdyg9KfHQMkLHYhEt5pavplqflxQb
dyOi0BjsQQDQFYMoEkziE5LbMFLOs39s+8wLyrhpq7F+nrfzVQoyNEUz/8NNHq0q
oB/EvzmVkgEf4TqfEAC9JrgdCKEpJRKHNoy7eUiEQPDP8iu2qlW7MnsOsoojdZU=
-----END CERTIFICATE-----
