Certificate:
    Data:
        Version: 3 (0x2)
        Serial Number:
            67:75:54:0c:e7:44:c3:b6:b9:04:e2:c1:e5:50:c0:e3:d0:e8:76:01
        Signature Algorithm: sha256WithRSAEncryption
        Issuer: C=NO, O=Green AS, OU=Green Certificate Authority, CN=Green TLS CA
        Validity
            Not Before: Jun 20 14:58:16 2020 GMT
            Not After : Jun 20 14:58:16 2022 GMT
        Subject: C=NO, O=Green AS, OU=Green Certificate Authority, CN=Search service
        Subject Public Key Info:
            Public Key Algorithm: rsaEncryption
                RSA Public-Key: (4096 bit)
                Modulus:
                    00:d8:4f:81:99:08:8a:b5:86:c5:97:0a:11:47:80:
                    81:cb:6a:b9:11:88:7e:70:82:39:c8:7e:7d:9b:46:
                    00:06:77:53:8c:5d:53:47:03:2c:66:49:42:04:8b:
                    0a:39:df:0a:ac:c0:cb:7f:7b:9c:8b:0a:c1:10:79:
                    e1:4e:7c:7c:64:d7:63:7a:03:7e:51:05:6d:db:5a:
                    8f:74:a2:fd:86:12:3f:99:95:a9:db:c8:00:26:13:
                    b6:e0:a2:7c:c5:ba:19:2f:b2:b2:43:13:a4:a3:4b:
                    79:f0:92:c6:4b:63:f9:52:f7:98:71:e8:61:96:da:
                    39:a9:1e:bd:23:98:0f:8d:91:4c:ad:0d:0e:4b:48:
                    06:02:b4:fd:3f:0b:2a:d3:a0:d6:16:3c:86:b8:c4:
                    28:58:11:d7:e5:e9:b6:f1:47:fa:dd:e1:2c:27:6d:
                    06:d9:ed:e2:11:ba:4d:d8:56:04:40:06:68:dc:94:
                    88:ef:24:38:79:ac:18:37:77:1c:d2:cc:4c:0f:69:
                    30:01:4f:71:18:5d:50:18:df:1d:76:33:bd:79:03:
                    13:35:06:1b:a5:81:97:9b:b5:0a:97:21:d9:64:3a:
                    f6:3f:5d:f2:d4:55:d3:17:63:f1:f8:df:c7:06:01:
                    9d:00:ee:7b:f5:82:20:37:9e:7b:df:25:a1:06:33:
                    23:00:50:50:e3:e6:88:61:f2:2b:c7:54:0c:25:56:
                    f7:a1:5a:63:fa:21:1a:7d:a0:20:82:ff:65:9e:e2:
                    04:9a:01:8a:46:7d:33:d4:f4:ee:6a:1c:17:43:73:
                    8c:b3:40:50:6f:bb:5d:4d:3d:d0:02:e3:7b:f5:32:
                    21:e5:32:93:88:c5:b7:d5:2d:83:a9:5e:68:92:05:
                    82:a1:6c:73:7f:37:22:ac:01:fe:01:4d:c3:85:00:
                    69:7e:4a:9c:4f:3c:37:64:60:9b:38:5d:20:6e:ff:
                    5a:ba:cb:aa:93:34:f4:7f:e9:fc:ff:bf:07:28:44:
                    50:07:f9:7e:0f:30:66:87:39:2f:87:d1:3e:88:f1:
                    b7:7a:f3:2a:a3:83:10:52:7d:e7:e3:a3:5b:e7:43:
                    d6:c8:63:b9:96:18:f7:2f:1d:17:a8:dd:65:9f:8e:
                    d9:db:89:3c:02:4a:66:5a:98:57:9c:2f:6b:59:d3:
                    8d:f8:08:3c:ed:6d:78:6c:6b:6b:2a:8f:26:a7:7e:
                    79:ed:95:30:7b:49:60:11:44:28:85:ae:24:fb:20:
                    51:9f:32:cd:69:61:7a:00:c0:35:11:66:83:48:82:
                    d3:04:78:41:31:f8:87:93:94:f0:0d:32:d2:33:c7:
                    00:65:d2:e0:6c:0a:da:dc:48:b1:71:a5:cf:53:0c:
                    cc:eb:ab
                Exponent: 65537 (0x10001)
        X509v3 extensions:
            X509v3 Key Usage: critical
                Digital Signature, Key Encipherment
            X509v3 Basic Constraints: 
                CA:FALSE
            X509v3 Extended Key Usage: 
                TLS Web Server Authentication, TLS Web Client Authentication
            X509v3 Subject Key Identifier: 
                D3:CD:5E:61:FE:89:C4:F4:C6:95:2D:D3:80:B4:5D:D6:E8:5C:99:5F
            X509v3 Authority Key Identifier: 
                keyid:86:F4:C6:F3:9C:68:1D:0E:6D:42:78:2A:89:D2:A0:16:07:03:F0:70

            Authority Information Access: 
                CA Issuers - URI:http://green.no/ca/tls-ca.cer

            X509v3 CRL Distribution Points: 

                Full Name:
                  URI:http://green.no/ca/tls-ca.crl

            X509v3 Subject Alternative Name: 
                DNS:green.no, DNS:www.green.no, DNS:localhost
    Signature Algorithm: sha256WithRSAEncryption
         55:4d:44:a1:fa:2c:f6:07:fa:ac:4d:69:44:13:b0:3b:d8:14:
         ca:23:3e:c0:6a:b5:24:e9:13:c8:db:da:3b:d8:80:5a:e7:8a:
         18:cd:60:b9:60:05:ae:c8:37:ba:88:dd:1d:f4:01:18:57:3b:
         58:1d:ce:c3:38:18:78:98:66:e6:9c:21:8a:c8:42:df:c8:96:
         0c:4c:d2:de:0b:c4:10:d5:a4:45:f8:50:15:9f:42:37:01:62:
         e3:85:c7:02:e0:f0:85:4c:35:df:b7:b0:14:66:ec:34:ea:22:
         58:22:58:bf:16:b7:34:aa:0a:13:27:8d:d6:24:3b:ca:c7:9a:
         26:85:2c:5e:df:5d:0b:c4:de:93:dd:f6:08:8e:8f:e7:95:15:
         a6:ec:63:fb:02:56:9f:2a:22:92:0b:b4:38:d2:63:23:94:b9:
         b8:15:01:46:38:0e:ae:1b:50:38:79:5f:76:55:92:61:1c:38:
         5f:55:e5:ad:47:c1:2c:b3:2f:03:09:9b:a3:09:bb:df:b8:88:
         db:d0:5a:e1:99:6a:2f:b3:6a:20:fd:76:b1:90:cc:de:1e:f1:
         bf:81:04:35:7b:f4:0c:0b:20:14:39:37:a0:cc:b9:d7:de:11:
         1c:a0:94:28:24:46:78:fc:f8:14:66:e9:25:c4:19:a2:9f:c2:
         2b:45:f2:82:75:92:9d:81:d2:1a:be:bd:f5:ac:a6:60:78:77:
         d1:59:47:48:06:30:47:fa:9e:f1:a1:bf:81:c7:d7:4b:79:2b:
         f4:c3:94:5e:1e:59:88:26:22:2b:fe:a8:3a:8e:e0:5b:d1:97:
         c4:27:27:30:8e:d4:29:58:63:18:df:9a:5f:38:4c:03:2a:97:
         5d:01:9f:fb:4b:30:f9:13:fa:6b:30:0b:c4:61:83:a5:14:0a:
         55:19:3e:78:20:da:6a:3f:53:eb:a5:3b:12:02:d6:28:98:f4:
         2a:1a:cf:6c:b2:1d:4f:a8:96:9b:c0:d2:46:d3:63:09:fa:0f:
         2e:21:36:90:24:35:b3:0b:28:ae:6a:0c:77:93:14:3a:0c:94:
         6f:c9:29:cb:91:5c:22:5a:4d:b3:04:b9:56:00:21:f5:66:5d:
         94:97:a0:0a:df:1c:92:2b:3a:7d:ad:f9:33:ec:ac:07:b0:0d:
         60:f4:b2:72:58:51:e3:a5:92:44:9b:62:9b:9d:71:e0:55:78:
         da:ae:50:c4:24:7c:88:0e:0f:3e:a9:c2:7a:0e:43:99:d8:8c:
         9e:44:06:e8:32:db:08:fa:f8:ce:74:d2:ce:7d:05:5d:3d:64:
         19:d6:11:6e:e1:d4:3c:a6:d8:e4:4d:5c:80:6d:b6:47:36:be:
         be:68:90:41:4c:6e:47:f7
-----BEGIN CERTIFICATE-----
MIIGYzCCBEugAwIBAgIUZ3VUDOdEw7a5BOLB5VDA49DodgEwDQYJKoZIhvcNAQEL
BQAwXTELMAkGA1UEBhMCTk8xETAPBgNVBAoMCEdyZWVuIEFTMSQwIgYDVQQLDBtH
cmVlbiBDZXJ0aWZpY2F0ZSBBdXRob3JpdHkxFTATBgNVBAMMDEdyZWVuIFRMUyBD
QTAeFw0yMDA2MjAxNDU4MTZaFw0yMjA2MjAxNDU4MTZaMF8xCzAJBgNVBAYTAk5P
MREwDwYDVQQKDAhHcmVlbiBBUzEkMCIGA1UECwwbR3JlZW4gQ2VydGlmaWNhdGUg
QXV0aG9yaXR5MRcwFQYDVQQDDA5TZWFyY2ggc2VydmljZTCCAiIwDQYJKoZIhvcN
AQEBBQADggIPADCCAgoCggIBANhPgZkIirWGxZcKEUeAgctquRGIfnCCOch+fZtG
AAZ3U4xdU0cDLGZJQgSLCjnfCqzAy397nIsKwRB54U58fGTXY3oDflEFbdtaj3Si
/YYSP5mVqdvIACYTtuCifMW6GS+yskMTpKNLefCSxktj+VL3mHHoYZbaOakevSOY
D42RTK0NDktIBgK0/T8LKtOg1hY8hrjEKFgR1+XptvFH+t3hLCdtBtnt4hG6TdhW
BEAGaNyUiO8kOHmsGDd3HNLMTA9pMAFPcRhdUBjfHXYzvXkDEzUGG6WBl5u1Cpch
2WQ69j9d8tRV0xdj8fjfxwYBnQDue/WCIDeee98loQYzIwBQUOPmiGHyK8dUDCVW
96FaY/ohGn2gIIL/ZZ7iBJoBikZ9M9T07mocF0NzjLNAUG+7XU090ALje/UyIeUy
k4jFt9Utg6leaJIFgqFsc383IqwB/gFNw4UAaX5KnE88N2RgmzhdIG7/WrrLqpM0
9H/p/P+/ByhEUAf5fg8wZoc5L4fRPojxt3rzKqODEFJ95+OjW+dD1shjuZYY9y8d
F6jdZZ+O2duJPAJKZlqYV5wva1nTjfgIPO1teGxrayqPJqd+ee2VMHtJYBFEKIWu
JPsgUZ8yzWlhegDANRFmg0iC0wR4QTH4h5OU8A0y0jPHAGXS4GwK2txIsXGlz1MM
zOurAgMBAAGjggEXMIIBEzAOBgNVHQ8BAf8EBAMCBaAwCQYDVR0TBAIwADAdBgNV
HSUEFjAUBggrBgEFBQcDAQYIKwYBBQUHAwIwHQYDVR0OBBYEFNPNXmH+icT0xpUt
04C0XdboXJlfMB8GA1UdIwQYMBaAFIb0xvOcaB0ObUJ4KonSoBYHA/BwMDkGCCsG
AQUFBwEBBC0wKzApBggrBgEFBQcwAoYdaHR0cDovL2dyZWVuLm5vL2NhL3Rscy1j
YS5jZXIwLgYDVR0fBCcwJTAjoCGgH4YdaHR0cDovL2dyZWVuLm5vL2NhL3Rscy1j
YS5jcmwwLAYDVR0RBCUwI4IIZ3JlZW4ubm+CDHd3dy5ncmVlbi5ub4IJbG9jYWxo
b3N0MA0GCSqGSIb3DQEBCwUAA4ICAQBVTUSh+iz2B/qsTWlEE7A72BTKIz7AarUk
6RPI29o72IBa54oYzWC5YAWuyDe6iN0d9AEYVztYHc7DOBh4mGbmnCGKyELfyJYM
TNLeC8QQ1aRF+FAVn0I3AWLjhccC4PCFTDXft7AUZuw06iJYIli/Frc0qgoTJ43W
JDvKx5omhSxe310LxN6T3fYIjo/nlRWm7GP7AlafKiKSC7Q40mMjlLm4FQFGOA6u
G1A4eV92VZJhHDhfVeWtR8Essy8DCZujCbvfuIjb0FrhmWovs2og/XaxkMzeHvG/
gQQ1e/QMCyAUOTegzLnX3hEcoJQoJEZ4/PgUZuklxBmin8IrRfKCdZKdgdIavr31
rKZgeHfRWUdIBjBH+p7xob+Bx9dLeSv0w5ReHlmIJiIr/qg6juBb0ZfEJycwjtQp
WGMY35pfOEwDKpddAZ/7SzD5E/prMAvEYYOlFApVGT54INpqP1PrpTsSAtYomPQq
Gs9ssh1PqJabwNJG02MJ+g8uITaQJDWzCyiuagx3kxQ6DJRvySnLkVwiWk2zBLlW
ACH1Zl2Ul6AK3xySKzp9rfkz7KwHsA1g9LJyWFHjpZJEm2KbnXHgVXjarlDEJHyI
Dg8+qcJ6DkOZ2IyeRAboMtsI+vjOdNLOfQVdPWQZ1hFu4dQ8ptjkTVyAbbZHNr6+
aJBBTG5H9w==
-----END CERTIFICATE-----
