Certificate:
    Data:
        Version: 3 (0x2)
        Serial Number:
            68:e4:b6:1d:ae:8b:b5:01:d0:5f:48:da:aa:de:77:e2:37:4b:df:99
        Signature Algorithm: sha256WithRSAEncryption
        Issuer: C=NO, O=Green AS, OU=Green Certificate Authority, CN=Green TLS CA
        Validity
            Not Before: Jun 20 14:58:20 2020 GMT
            Not After : Jun 20 14:58:20 2022 GMT
        Subject: C=NO, O=Green AS, OU=Green Certificate Authority, CN=Team 29 Main App
        Subject Public Key Info:
            Public Key Algorithm: rsaEncryption
                RSA Public-Key: (4096 bit)
                Modulus:
                    00:bd:47:bc:e9:4d:b3:26:e4:f9:a3:de:1b:f4:38:
                    91:b5:76:f6:e2:d7:57:23:31:49:9d:21:08:14:b0:
                    67:ed:90:2f:12:82:b1:12:c5:0b:9d:c6:89:1c:73:
                    ad:6a:b7:bc:92:46:61:2b:76:aa:c0:d4:1f:17:d8:
                    15:c2:99:af:98:22:bd:2e:2b:3f:8e:7f:8a:9a:f9:
                    fc:6f:21:54:4f:17:4f:58:52:8d:54:56:af:e6:e3:
                    73:bd:76:63:1f:75:e7:c3:0d:c1:a8:03:99:0d:fb:
                    f4:fe:c4:9e:73:52:2b:13:20:56:99:14:0e:5e:f2:
                    00:38:26:83:0c:d6:42:ab:ec:6e:7f:18:25:e2:06:
                    85:45:2d:90:d5:46:b0:34:66:71:71:24:3c:ca:f1:
                    c8:03:9e:28:af:60:3e:46:12:7c:c4:99:3e:ac:65:
                    51:bd:e5:e2:59:00:a4:ad:b6:7c:81:86:e0:4f:b6:
                    fd:42:19:a6:c4:f5:20:9c:1b:36:05:2e:e4:72:66:
                    e1:ab:62:a9:53:09:27:c6:a8:94:24:5d:05:af:77:
                    8e:cd:53:da:ab:23:a8:9b:b3:61:0b:fe:95:83:34:
                    4b:2a:3e:c8:d0:a0:c2:4c:ca:b6:b5:08:a1:15:de:
                    a1:a5:7f:5a:2d:d5:cd:73:18:66:16:46:30:65:09:
                    24:37:b3:cf:78:5e:e4:83:b2:e8:8d:63:fc:80:e5:
                    65:33:dd:95:c4:7b:96:6f:e8:cd:71:f6:85:e0:d3:
                    0f:38:1f:8e:a2:ff:42:7d:85:3d:f4:21:9f:90:cb:
                    6d:bb:de:ba:b9:4b:10:08:0a:85:79:b2:f2:d1:10:
                    83:fd:b6:c1:bb:dd:0a:02:8f:63:67:8c:24:c1:48:
                    7f:ea:6b:b6:e4:1f:d5:f5:c8:a7:7e:36:71:6b:51:
                    20:cf:ac:0f:42:45:d1:0e:a0:45:04:f0:e9:60:c3:
                    5f:7a:06:47:2b:6b:ee:26:81:41:fd:01:dc:12:08:
                    8d:54:1c:00:bb:e3:af:02:23:8d:04:5d:60:ab:56:
                    f2:b9:24:83:35:e0:a0:e7:c8:67:97:ac:f1:c1:99:
                    c8:92:dd:9b:9c:3f:4c:2a:92:a9:82:f7:f9:9d:d4:
                    e4:92:93:5e:b4:4c:7c:94:07:bf:cf:b8:58:f5:8a:
                    0e:aa:ed:b6:9f:de:93:e2:06:65:6f:e9:17:00:5d:
                    c8:2a:a6:e6:94:78:46:f3:b7:c0:6e:42:37:4e:33:
                    a2:f1:5d:1d:bb:6a:7d:ba:2a:07:24:f5:9a:4c:67:
                    e2:84:e4:d1:68:f6:b3:57:18:c7:4f:51:41:d4:d0:
                    70:f7:d2:8a:f0:49:bf:0e:ae:52:51:f0:5e:51:56:
                    d4:e8:1b
                Exponent: 65537 (0x10001)
        X509v3 extensions:
            X509v3 Key Usage: critical
                Digital Signature
            X509v3 Basic Constraints: 
                CA:FALSE
            X509v3 Extended Key Usage: 
                TLS Web Client Authentication
            X509v3 Subject Key Identifier: 
                52:FD:8A:35:BD:78:7D:66:A1:19:7C:EC:5F:D5:3C:60:6E:E4:1F:A6
            X509v3 Authority Key Identifier: 
                keyid:86:F4:C6:F3:9C:68:1D:0E:6D:42:78:2A:89:D2:A0:16:07:03:F0:70

            Authority Information Access: 
                CA Issuers - URI:http://green.no/ca/tls-ca.cer

            X509v3 CRL Distribution Points: 

                Full Name:
                  URI:http://green.no/ca/tls-ca.crl

    Signature Algorithm: sha256WithRSAEncryption
         39:bf:c7:4c:63:66:f5:00:2a:c9:13:c8:58:48:3c:71:30:bf:
         9f:bf:c1:0c:21:8a:cc:56:e1:0f:25:2f:cd:2b:3b:1b:6c:e2:
         f7:86:fe:c9:3c:7a:7d:0b:fe:db:d0:ea:fc:28:07:b3:af:ea:
         8a:d0:d6:59:04:41:3d:9a:b9:cf:84:9c:9c:b1:c9:2b:19:ff:
         f2:4a:58:83:fb:ad:51:c2:72:71:51:57:f3:8d:7c:22:92:15:
         9f:d1:ce:4d:2e:b4:d6:52:de:f6:e7:b5:00:de:9b:8a:b2:c5:
         13:ad:75:8c:9a:ce:ea:ac:97:e1:88:76:9c:43:c0:bf:0e:ba:
         6d:1a:e2:0b:c2:78:56:c0:49:4c:df:7e:38:b9:da:46:16:9d:
         a0:f3:0b:0f:7d:4d:c6:31:b3:23:db:29:0c:f6:57:e8:f4:cd:
         bf:38:ee:84:43:bc:d2:3e:d8:7b:3f:f2:03:da:fd:cc:56:68:
         8e:b3:f2:5e:83:5a:48:00:a4:74:ab:06:69:a6:49:4f:b1:36:
         20:d5:aa:b2:0f:b2:b6:7b:7d:9e:31:81:8f:e2:54:51:fb:44:
         ec:98:0d:67:76:b5:e1:f9:de:c9:85:55:99:e5:bb:a5:ef:b6:
         d4:2a:cc:7e:d5:9b:c3:97:5d:b8:86:b7:31:c5:9c:54:76:25:
         bf:f6:84:14:36:c7:88:a7:c4:1e:bb:92:b0:00:8e:43:31:9a:
         9b:e9:fc:a9:b8:c3:9b:fd:48:ee:79:ec:58:94:da:d4:e3:66:
         ab:a3:cb:85:90:63:66:0a:25:2c:ec:ba:d3:12:23:f5:a5:af:
         20:48:d1:e5:e6:38:2c:47:66:ba:f0:59:97:b5:ec:d2:21:13:
         e8:f3:11:16:fc:52:fa:b4:8c:9b:2e:a0:1f:7d:47:9f:ea:fa:
         b4:04:46:ac:1e:d3:9c:b8:ef:31:88:f2:4e:fa:7d:2c:ff:92:
         25:8a:93:24:f1:2a:53:c6:1d:a3:9b:ef:41:4f:df:87:58:ed:
         ea:c3:b8:3b:ea:00:c0:31:6a:db:08:2d:79:1b:71:8d:94:9d:
         93:4d:23:b0:44:6c:cd:f5:6b:05:06:ba:4f:6a:16:23:5e:b1:
         1b:75:9e:94:89:3b:57:aa:73:a0:3d:9f:21:96:da:6c:dd:eb:
         a3:2a:da:4c:aa:23:71:e6:91:b1:ab:e9:ee:98:28:bb:ef:90:
         17:32:67:cd:0b:3a:68:41:a6:42:58:cc:66:f1:dd:16:c4:28:
         fb:57:79:6f:d2:1f:8f:3f:00:ca:af:68:b1:fc:fd:7e:c9:05:
         2b:b7:69:52:c5:c0:6b:43:c1:0c:a3:23:f5:b8:2d:d4:86:a8:
         82:84:c9:b0:d2:58:e1:06
-----BEGIN CERTIFICATE-----
MIIGKzCCBBOgAwIBAgIUaOS2Ha6LtQHQX0jaqt534jdL35kwDQYJKoZIhvcNAQEL
BQAwXTELMAkGA1UEBhMCTk8xETAPBgNVBAoMCEdyZWVuIEFTMSQwIgYDVQQLDBtH
cmVlbiBDZXJ0aWZpY2F0ZSBBdXRob3JpdHkxFTATBgNVBAMMDEdyZWVuIFRMUyBD
QTAeFw0yMDA2MjAxNDU4MjBaFw0yMjA2MjAxNDU4MjBaMGExCzAJBgNVBAYTAk5P
MREwDwYDVQQKDAhHcmVlbiBBUzEkMCIGA1UECwwbR3JlZW4gQ2VydGlmaWNhdGUg
QXV0aG9yaXR5MRkwFwYDVQQDDBBUZWFtIDI5IE1haW4gQXBwMIICIjANBgkqhkiG
9w0BAQEFAAOCAg8AMIICCgKCAgEAvUe86U2zJuT5o94b9DiRtXb24tdXIzFJnSEI
FLBn7ZAvEoKxEsULncaJHHOtare8kkZhK3aqwNQfF9gVwpmvmCK9Lis/jn+Kmvn8
byFUTxdPWFKNVFav5uNzvXZjH3Xnww3BqAOZDfv0/sSec1IrEyBWmRQOXvIAOCaD
DNZCq+xufxgl4gaFRS2Q1UawNGZxcSQ8yvHIA54or2A+RhJ8xJk+rGVRveXiWQCk
rbZ8gYbgT7b9QhmmxPUgnBs2BS7kcmbhq2KpUwknxqiUJF0Fr3eOzVPaqyOom7Nh
C/6VgzRLKj7I0KDCTMq2tQihFd6hpX9aLdXNcxhmFkYwZQkkN7PPeF7kg7LojWP8
gOVlM92VxHuWb+jNcfaF4NMPOB+Oov9CfYU99CGfkMttu966uUsQCAqFebLy0RCD
/bbBu90KAo9jZ4wkwUh/6mu25B/V9cinfjZxa1Egz6wPQkXRDqBFBPDpYMNfegZH
K2vuJoFB/QHcEgiNVBwAu+OvAiONBF1gq1byuSSDNeCg58hnl6zxwZnIkt2bnD9M
KpKpgvf5ndTkkpNetEx8lAe/z7hY9YoOqu22n96T4gZlb+kXAF3IKqbmlHhG87fA
bkI3TjOi8V0du2p9uioHJPWaTGfihOTRaPazVxjHT1FB1NBw99KK8Em/Dq5SUfBe
UVbU6BsCAwEAAaOB3jCB2zAOBgNVHQ8BAf8EBAMCB4AwCQYDVR0TBAIwADATBgNV
HSUEDDAKBggrBgEFBQcDAjAdBgNVHQ4EFgQUUv2KNb14fWahGXzsX9U8YG7kH6Yw
HwYDVR0jBBgwFoAUhvTG85xoHQ5tQngqidKgFgcD8HAwOQYIKwYBBQUHAQEELTAr
MCkGCCsGAQUFBzAChh1odHRwOi8vZ3JlZW4ubm8vY2EvdGxzLWNhLmNlcjAuBgNV
HR8EJzAlMCOgIaAfhh1odHRwOi8vZ3JlZW4ubm8vY2EvdGxzLWNhLmNybDANBgkq
hkiG9w0BAQsFAAOCAgEAOb/HTGNm9QAqyRPIWEg8cTC/n7/BDCGKzFbhDyUvzSs7
G2zi94b+yTx6fQv+29Dq/CgHs6/qitDWWQRBPZq5z4ScnLHJKxn/8kpYg/utUcJy
cVFX8418IpIVn9HOTS601lLe9ue1AN6birLFE611jJrO6qyX4Yh2nEPAvw66bRri
C8J4VsBJTN9+OLnaRhadoPMLD31NxjGzI9spDPZX6PTNvzjuhEO80j7Yez/yA9r9
zFZojrPyXoNaSACkdKsGaaZJT7E2INWqsg+ytnt9njGBj+JUUftE7JgNZ3a14fne
yYVVmeW7pe+21CrMftWbw5dduIa3McWcVHYlv/aEFDbHiKfEHruSsACOQzGam+n8
qbjDm/1I7nnsWJTa1ONmq6PLhZBjZgolLOy60xIj9aWvIEjR5eY4LEdmuvBZl7Xs
0iET6PMRFvxS+rSMmy6gH31Hn+r6tARGrB7TnLjvMYjyTvp9LP+SJYqTJPEqU8Yd
o5vvQU/fh1jt6sO4O+oAwDFq2wgteRtxjZSdk00jsERszfVrBQa6T2oWI16xG3We
lIk7V6pzoD2fIZbabN3royraTKojceaRsavp7pgou++QFzJnzQs6aEGmQljMZvHd
FsQo+1d5b9Ifjz8Ayq9osfz9fskFK7dpUsXAa0PBDKMj9bgt1IaogoTJsNJY4QY=
-----END CERTIFICATE-----
