Certificate:
    Data:
        Version: 3 (0x2)
        Serial Number:
            69:e9:a7:89:23:ac:fe:55:a0:0b:57:bd:6f:3e:d7:8f:84:9c:f0:26
        Signature Algorithm: sha256WithRSAEncryption
        Issuer: C=NO, O=Green AS, OU=Green Certificate Authority, CN=Green TLS CA
        Validity
            Not Before: Jun 20 14:58:14 2020 GMT
            Not After : Jun 20 14:58:14 2022 GMT
        Subject: C=NO, O=Green AS, OU=Green Certificate Authority, CN=Renting service
        Subject Public Key Info:
            Public Key Algorithm: rsaEncryption
                RSA Public-Key: (4096 bit)
                Modulus:
                    00:d2:90:a3:f6:70:4a:60:4c:9b:68:75:81:9e:68:
                    4a:42:88:db:0b:ca:03:27:73:46:1b:e7:0a:c4:05:
                    c7:b9:71:87:92:5c:2d:a0:fe:fe:82:56:55:2c:cc:
                    82:b4:2b:52:21:c7:27:93:f0:14:64:e0:85:86:18:
                    a9:29:f9:b3:5b:12:0f:27:b9:b6:8a:60:69:4d:c3:
                    6f:ac:aa:3a:47:26:43:a2:67:1b:26:87:a3:a4:b2:
                    f9:cd:eb:e0:8e:e9:9b:4e:96:3c:2b:04:53:35:58:
                    50:7c:81:a2:67:7b:f5:76:9d:c5:0a:f0:8f:78:12:
                    ad:6a:b5:cc:b7:55:62:14:f6:cc:1a:40:af:03:d3:
                    33:0b:a9:b4:11:39:ef:ec:0e:f3:fc:b2:df:a7:38:
                    b2:64:10:dd:13:a4:ec:e9:f0:01:ea:34:25:1f:69:
                    8e:9f:f1:cc:2a:6a:b5:bf:46:af:e7:57:4e:11:ca:
                    f1:8b:20:9e:71:b3:99:cf:17:32:72:cf:79:7f:6c:
                    8c:ba:e8:3d:55:17:7e:ac:3d:95:45:dc:92:26:84:
                    06:c2:d8:a6:30:d8:38:98:4a:1f:11:c8:c2:cd:e0:
                    d1:b0:09:59:48:5a:bf:a9:f4:78:74:ad:fc:92:90:
                    13:9a:0b:9a:c4:60:2c:7f:d8:6c:23:a2:b3:fc:68:
                    1b:41:5c:55:5a:ec:8f:25:3a:d6:e0:72:6c:a5:ca:
                    2f:da:c3:84:2b:3e:8e:92:0f:a2:8d:ce:7e:d0:78:
                    c2:ff:41:32:1a:af:c0:23:39:a3:5f:7d:0e:66:ab:
                    6d:eb:39:e0:f0:5c:d0:df:9a:4a:ff:88:9d:fc:d0:
                    08:06:9f:0c:6d:a7:fc:0d:a9:e6:0d:37:eb:23:ba:
                    9c:1a:e3:ff:9c:27:68:e3:1b:91:57:af:86:8f:7f:
                    c4:2a:05:f0:4b:62:05:6c:a2:46:0d:f0:23:34:50:
                    43:87:79:ea:84:db:8f:0b:ca:6b:b4:ab:0a:71:7f:
                    c0:32:ca:56:c3:d5:d6:aa:40:f9:3f:b1:9b:ee:13:
                    89:ba:71:d9:12:03:b7:d0:1e:d0:88:26:1f:8a:22:
                    e4:0a:12:c1:d7:48:5e:20:67:4f:c0:50:a1:f9:63:
                    55:fc:23:1a:3d:8b:4a:4b:ec:8f:c1:cd:c6:ac:20:
                    2b:fc:a1:63:0f:a5:b3:c7:c7:aa:17:13:bb:cd:f6:
                    14:98:0e:72:8e:81:7d:23:60:55:8d:aa:15:b9:34:
                    3c:95:50:8c:e2:14:de:e8:b8:55:32:b1:12:da:1d:
                    09:b0:a7:00:5c:d9:40:55:65:da:5a:80:82:f7:14:
                    fb:7d:41:8f:4c:0e:00:9e:fe:40:0f:05:cb:21:20:
                    b1:35:29
                Exponent: 65537 (0x10001)
        X509v3 extensions:
            X509v3 Key Usage: critical
                Digital Signature, Key Encipherment
            X509v3 Basic Constraints: 
                CA:FALSE
            X509v3 Extended Key Usage: 
                TLS Web Server Authentication, TLS Web Client Authentication
            X509v3 Subject Key Identifier: 
                BF:CA:5F:7B:52:EC:51:66:6B:5A:BF:20:31:A9:77:A1:D8:AB:16:CA
            X509v3 Authority Key Identifier: 
                keyid:86:F4:C6:F3:9C:68:1D:0E:6D:42:78:2A:89:D2:A0:16:07:03:F0:70

            Authority Information Access: 
                CA Issuers - URI:http://green.no/ca/tls-ca.cer

            X509v3 CRL Distribution Points: 

                Full Name:
                  URI:http://green.no/ca/tls-ca.crl

            X509v3 Subject Alternative Name: 
                DNS:green.no, DNS:www.green.no, DNS:localhost
    Signature Algorithm: sha256WithRSAEncryption
         b5:36:b4:b7:41:c3:1a:ed:6c:6e:3c:ec:72:56:3f:16:3c:d4:
         19:ea:b2:8f:b2:2a:13:a0:3c:93:2c:21:84:b7:c6:e7:b2:72:
         fb:73:56:6c:05:c1:c7:bd:c3:ac:6b:46:de:d9:e9:73:1b:47:
         81:61:48:70:70:62:4d:83:49:c8:d1:c2:90:f4:f0:a5:e5:59:
         14:d9:9a:30:db:00:24:6e:25:ae:a5:a0:95:5a:f3:d9:76:7c:
         5c:91:d2:41:fb:b9:1f:af:21:da:87:89:f7:ab:c6:49:25:5a:
         7a:7d:be:05:9c:dc:c3:c2:98:a4:20:a6:94:5b:1c:4e:3c:29:
         2a:79:4e:a6:10:7d:21:b7:8f:22:76:0c:ad:66:e7:37:e1:1b:
         b4:14:cd:12:36:60:9d:15:5b:4f:8f:bc:6d:24:a6:90:cd:ac:
         3c:4c:83:3b:f4:f0:f5:9c:7d:e7:36:c4:ed:a7:c1:1f:2a:45:
         5e:0a:4d:17:90:98:a8:8d:6a:62:d7:43:29:5f:01:43:07:25:
         43:5b:b2:2e:0c:9d:fd:12:64:cc:b4:a7:c1:18:22:82:14:38:
         2b:13:9a:c1:08:09:c4:3b:36:cb:d9:a0:2f:72:df:dc:b1:d4:
         24:d4:fd:74:d1:ee:8c:cc:24:30:3f:f1:9d:3f:d1:c7:2f:93:
         f6:46:82:7c:7b:54:d2:3e:52:f3:6c:08:e3:91:85:9b:3f:83:
         0a:4e:5b:5d:49:28:5d:64:9c:d5:cc:e7:b9:03:24:f1:5b:10:
         f5:d6:58:e0:06:e6:a4:ad:0c:eb:4d:e3:a5:8e:77:0c:32:62:
         cf:9d:b2:6f:4e:d7:47:53:ce:08:25:f9:a4:b9:e3:b9:b9:83:
         3a:8f:6b:fb:3c:03:66:86:f2:ae:46:fb:64:6a:c9:93:a2:a9:
         d9:f0:ae:31:82:66:1e:74:8d:21:e1:c3:9b:7b:74:5e:3b:00:
         21:6a:84:82:83:40:80:82:8a:b3:13:62:80:4e:c7:ca:b4:e7:
         67:97:55:96:b1:60:55:82:04:d5:99:d9:8a:bd:e6:5d:1a:e7:
         6f:a3:ea:b0:ac:d3:3a:e0:97:e3:95:54:93:17:bb:72:61:8a:
         d0:c7:91:fe:8c:07:2a:c3:dc:ea:ec:ca:77:45:0e:50:86:fa:
         28:6b:6c:a8:30:7e:fe:af:f4:70:23:81:c0:7b:3f:e1:ed:d8:
         07:ab:37:f2:78:fe:0d:bd:f9:d2:3e:f0:c0:de:4b:56:30:bf:
         0c:41:4a:51:68:28:a1:c0:a7:3b:f1:cb:20:6a:0f:da:d6:72:
         fa:01:c3:12:72:93:ab:2a:5f:4c:f1:cb:90:4a:3b:8d:8c:f2:
         09:c6:47:7a:ee:ec:9d:9a
-----BEGIN CERTIFICATE-----
MIIGZDCCBEygAwIBAgIUaemniSOs/lWgC1e9bz7Xj4Sc8CYwDQYJKoZIhvcNAQEL
BQAwXTELMAkGA1UEBhMCTk8xETAPBgNVBAoMCEdyZWVuIEFTMSQwIgYDVQQLDBtH
cmVlbiBDZXJ0aWZpY2F0ZSBBdXRob3JpdHkxFTATBgNVBAMMDEdyZWVuIFRMUyBD
QTAeFw0yMDA2MjAxNDU4MTRaFw0yMjA2MjAxNDU4MTRaMGAxCzAJBgNVBAYTAk5P
MREwDwYDVQQKDAhHcmVlbiBBUzEkMCIGA1UECwwbR3JlZW4gQ2VydGlmaWNhdGUg
QXV0aG9yaXR5MRgwFgYDVQQDDA9SZW50aW5nIHNlcnZpY2UwggIiMA0GCSqGSIb3
DQEBAQUAA4ICDwAwggIKAoICAQDSkKP2cEpgTJtodYGeaEpCiNsLygMnc0Yb5wrE
Bce5cYeSXC2g/v6CVlUszIK0K1IhxyeT8BRk4IWGGKkp+bNbEg8nubaKYGlNw2+s
qjpHJkOiZxsmh6OksvnN6+CO6ZtOljwrBFM1WFB8gaJne/V2ncUK8I94Eq1qtcy3
VWIU9swaQK8D0zMLqbQROe/sDvP8st+nOLJkEN0TpOzp8AHqNCUfaY6f8cwqarW/
Rq/nV04RyvGLIJ5xs5nPFzJyz3l/bIy66D1VF36sPZVF3JImhAbC2KYw2DiYSh8R
yMLN4NGwCVlIWr+p9Hh0rfySkBOaC5rEYCx/2GwjorP8aBtBXFVa7I8lOtbgcmyl
yi/aw4QrPo6SD6KNzn7QeML/QTIar8AjOaNffQ5mq23rOeDwXNDfmkr/iJ380AgG
nwxtp/wNqeYNN+sjupwa4/+cJ2jjG5FXr4aPf8QqBfBLYgVsokYN8CM0UEOHeeqE
248Lymu0qwpxf8AyylbD1daqQPk/sZvuE4m6cdkSA7fQHtCIJh+KIuQKEsHXSF4g
Z0/AUKH5Y1X8Ixo9i0pL7I/BzcasICv8oWMPpbPHx6oXE7vN9hSYDnKOgX0jYFWN
qhW5NDyVUIziFN7ouFUysRLaHQmwpwBc2UBVZdpagIL3FPt9QY9MDgCe/kAPBcsh
ILE1KQIDAQABo4IBFzCCARMwDgYDVR0PAQH/BAQDAgWgMAkGA1UdEwQCMAAwHQYD
VR0lBBYwFAYIKwYBBQUHAwEGCCsGAQUFBwMCMB0GA1UdDgQWBBS/yl97UuxRZmta
vyAxqXeh2KsWyjAfBgNVHSMEGDAWgBSG9MbznGgdDm1CeCqJ0qAWBwPwcDA5Bggr
BgEFBQcBAQQtMCswKQYIKwYBBQUHMAKGHWh0dHA6Ly9ncmVlbi5uby9jYS90bHMt
Y2EuY2VyMC4GA1UdHwQnMCUwI6AhoB+GHWh0dHA6Ly9ncmVlbi5uby9jYS90bHMt
Y2EuY3JsMCwGA1UdEQQlMCOCCGdyZWVuLm5vggx3d3cuZ3JlZW4ubm+CCWxvY2Fs
aG9zdDANBgkqhkiG9w0BAQsFAAOCAgEAtTa0t0HDGu1sbjzsclY/FjzUGeqyj7Iq
E6A8kywhhLfG57Jy+3NWbAXBx73DrGtG3tnpcxtHgWFIcHBiTYNJyNHCkPTwpeVZ
FNmaMNsAJG4lrqWglVrz2XZ8XJHSQfu5H68h2oeJ96vGSSVaen2+BZzcw8KYpCCm
lFscTjwpKnlOphB9IbePInYMrWbnN+EbtBTNEjZgnRVbT4+8bSSmkM2sPEyDO/Tw
9Zx95zbE7afBHypFXgpNF5CYqI1qYtdDKV8BQwclQ1uyLgyd/RJkzLSnwRgighQ4
KxOawQgJxDs2y9mgL3Lf3LHUJNT9dNHujMwkMD/xnT/Rxy+T9kaCfHtU0j5S82wI
45GFmz+DCk5bXUkoXWSc1cznuQMk8VsQ9dZY4AbmpK0M603jpY53DDJiz52yb07X
R1POCCX5pLnjubmDOo9r+zwDZobyrkb7ZGrJk6Kp2fCuMYJmHnSNIeHDm3t0XjsA
IWqEgoNAgIKKsxNigE7HyrTnZ5dVlrFgVYIE1ZnZir3mXRrnb6PqsKzTOuCX45VU
kxe7cmGK0MeR/owHKsPc6uzKd0UOUIb6KGtsqDB+/q/0cCOBwHs/4e3YB6s38nj+
Db350j7wwN5LVjC/DEFKUWgoocCnO/HLIGoP2tZy+gHDEnKTqypfTPHLkEo7jYzy
CcZHeu7snZo=
-----END CERTIFICATE-----
