Certificate:
    Data:
        Version: 3 (0x2)
        Serial Number:
            71:45:e0:38:5e:e6:1a:80:6b:32:cf:d9:4a:56:91:3b:b5:3b:cd:a3
        Signature Algorithm: sha256WithRSAEncryption
        Issuer: C=NO, O=Green AS, OU=Green Certificate Authority, CN=Green TLS CA
        Validity
            Not Before: May 20 18:14:54 2020 GMT
            Not After : May 20 18:14:54 2022 GMT
        Subject: C=NO, O=Green AS, OU=Green Certificate Authority, CN=Rent-a-Car Agent App
        Subject Public Key Info:
            Public Key Algorithm: rsaEncryption
                RSA Public-Key: (4096 bit)
                Modulus:
                    00:e9:1f:74:9b:a6:e7:28:91:35:db:ce:50:5e:c2:
                    a1:cb:0c:c3:51:40:0c:e2:4d:27:50:ab:9a:5a:f7:
                    8e:b3:ad:dd:5f:f7:7e:7f:db:b3:f0:58:3f:29:dd:
                    1a:16:4c:b6:bb:b9:a3:ed:57:b0:b4:2f:92:60:0e:
                    0e:27:b0:09:14:c2:3d:b9:47:a9:a3:cb:f4:5f:fa:
                    1f:aa:13:8d:e9:77:c3:80:d0:a7:8a:b0:c6:6a:00:
                    2c:c2:2e:99:9c:6b:f7:96:1c:c1:bb:ca:f1:d9:cd:
                    6d:3d:f5:f3:93:bf:7a:49:45:6f:e5:e9:ef:4e:de:
                    d5:31:4a:e5:75:55:40:4d:0b:1a:a3:11:55:c0:78:
                    ea:b5:4b:b2:18:74:03:88:65:a9:8b:f4:e1:b9:ad:
                    44:3b:26:57:ab:91:1e:83:36:be:7d:d3:8b:41:28:
                    f7:e1:32:4b:1a:10:e9:86:b6:7e:90:5a:26:a2:87:
                    38:bc:17:42:83:d5:44:13:5d:3c:e2:61:10:4b:b1:
                    1a:22:51:78:1d:d6:f9:92:8a:a1:d5:56:4c:ec:64:
                    3c:18:45:5b:57:1f:c8:2f:4d:52:22:5a:71:ad:12:
                    e3:42:a2:c1:0e:bb:41:35:1b:06:83:de:47:54:b6:
                    2c:32:55:d8:7d:dc:7a:c3:6e:36:ba:cb:bb:18:73:
                    13:10:d0:e6:e3:af:66:b9:c4:ee:a4:d6:71:8a:41:
                    46:22:85:c0:60:24:a0:7a:d2:e7:26:08:87:ce:f1:
                    4f:0d:fd:f8:20:31:f2:1d:29:e2:24:89:58:3c:83:
                    d8:bf:22:7f:b5:c7:15:56:e9:c4:37:33:6e:cd:9e:
                    fd:a9:d6:21:7c:3f:06:8c:cb:97:73:c7:25:f1:a3:
                    d1:3b:0d:be:24:0e:a3:bd:e4:a7:79:e2:41:b5:39:
                    78:cf:23:06:ea:0b:d4:fb:79:1c:57:d7:e1:6c:e1:
                    35:0c:c2:3b:73:44:56:02:5d:5c:f4:28:90:33:19:
                    b0:7f:40:4c:31:9b:42:ab:96:e7:62:db:7d:3f:21:
                    e3:5a:e1:4e:cb:1d:ea:03:28:69:6b:b8:0e:ce:b0:
                    c3:12:78:bc:ad:ed:78:78:b0:36:19:45:1e:00:62:
                    0a:2c:5f:93:27:69:ee:09:0b:aa:b8:36:64:75:84:
                    0d:72:e8:46:0f:98:00:27:49:be:73:0d:fb:8b:e1:
                    2e:f3:18:4c:5c:1d:c1:53:60:fe:6e:41:2d:c2:10:
                    e5:73:de:90:6c:46:59:dc:88:ba:f0:9b:ab:ce:c5:
                    5c:06:8f:32:b1:21:09:77:57:6e:7b:34:26:b2:6b:
                    5a:75:bd:84:cf:2a:ae:04:79:1d:75:a1:30:07:59:
                    59:ae:7d
                Exponent: 65537 (0x10001)
        X509v3 extensions:
            X509v3 Key Usage: critical
                Digital Signature, Key Encipherment
            X509v3 Basic Constraints: 
                CA:FALSE
            X509v3 Extended Key Usage: 
                TLS Web Server Authentication, TLS Web Client Authentication
            X509v3 Subject Key Identifier: 
                D2:13:ED:13:1B:5C:64:A1:31:E5:F1:58:29:D4:52:E0:8E:9E:C8:1C
            X509v3 Authority Key Identifier: 
                keyid:EB:BF:1B:31:64:45:6D:05:E0:DB:15:6C:AE:FC:7B:F8:30:20:3F:33

            Authority Information Access: 
                CA Issuers - URI:http://green.no/ca/tls-ca.cer

            X509v3 CRL Distribution Points: 

                Full Name:
                  URI:http://green.no/ca/tls-ca.crl

            X509v3 Subject Alternative Name: 
                DNS:green.no, DNS:www.green.no, DNS:localhost
    Signature Algorithm: sha256WithRSAEncryption
         02:b5:2b:a6:ad:5d:a9:4b:2a:89:be:e0:ae:8f:ef:23:f3:ca:
         d6:1f:f1:c4:37:02:da:11:5f:40:2a:3b:52:54:0c:27:b3:46:
         ff:4b:52:ab:c8:c3:bc:ed:df:3a:c2:61:ed:e3:6f:ce:61:13:
         90:70:7f:ef:a5:ad:9c:fd:07:6d:6f:78:54:35:46:81:f0:4b:
         89:0c:55:ca:3c:03:83:e0:22:c3:c5:c3:61:a8:ef:e3:e9:2b:
         40:91:48:07:11:d0:8e:62:84:60:ed:26:65:01:1c:a0:6b:f3:
         f1:38:c2:bd:22:b3:3f:a2:b9:39:98:e0:4c:7c:94:d4:cf:41:
         6a:8e:6b:cb:1f:51:94:9c:bc:ce:3d:5d:ce:db:91:12:a7:a5:
         f1:38:47:68:ba:42:ad:2f:85:79:e1:5e:09:3a:8d:22:00:e0:
         83:78:32:4a:a7:8a:fb:65:11:60:01:67:63:68:f3:53:2b:6e:
         7a:09:b8:f7:7c:a0:9d:67:88:21:52:4d:b8:70:ec:84:1f:cd:
         38:1b:f5:34:af:de:d0:4b:bf:14:42:15:c2:15:bf:80:3c:71:
         35:ad:87:f8:7f:16:5d:06:32:6f:49:c4:f9:24:4f:b5:81:d6:
         87:bc:3b:f8:a9:24:bc:ab:f6:14:0f:79:5f:70:b8:61:36:fa:
         d9:e6:0a:bf:ba:48:5c:fe:57:af:42:04:2a:af:26:c7:12:98:
         2d:d6:ec:9b:19:ee:a7:ec:0e:be:1c:93:fc:3a:e8:5c:1e:6e:
         88:5b:5e:3e:ab:39:78:02:2a:64:18:1c:aa:e7:40:c0:5e:fe:
         77:53:8b:0c:37:88:b9:c9:2b:96:cc:01:f6:7a:db:3a:2f:40:
         d4:ce:1b:28:6a:9e:17:43:2e:bd:4d:90:45:ad:3e:e8:37:37:
         4b:ad:cc:14:65:3d:93:59:63:55:17:43:c2:c6:9b:32:8d:3d:
         09:17:3b:93:43:58:f2:eb:37:85:56:c9:52:d2:cf:d9:10:cb:
         1d:f7:cb:91:41:75:30:0d:18:44:88:de:b9:f8:28:e9:01:76:
         3d:68:cf:1f:65:5e:7f:44:2d:66:0e:a7:a6:8d:4b:ab:dd:a0:
         95:b0:2b:76:d8:00:f3:0d:08:9a:e9:bb:fb:ac:e7:3e:b3:c7:
         9b:19:82:f3:63:e6:74:85:d6:d2:ce:4c:e7:94:e5:9a:e6:49:
         4a:6b:a1:d8:2a:89:89:3d:e3:31:11:5e:6a:81:b4:4f:ed:04:
         3a:5a:8e:83:75:61:d5:e0:44:20:26:97:6e:9b:6f:d2:09:b3:
         1f:22:65:92:a5:1c:64:03:21:9a:96:3c:8f:48:55:34:ca:21:
         d7:3a:51:2b:71:de:45:ab
-----BEGIN CERTIFICATE-----
MIIGaTCCBFGgAwIBAgIUcUXgOF7mGoBrMs/ZSlaRO7U7zaMwDQYJKoZIhvcNAQEL
BQAwXTELMAkGA1UEBhMCTk8xETAPBgNVBAoMCEdyZWVuIEFTMSQwIgYDVQQLDBtH
cmVlbiBDZXJ0aWZpY2F0ZSBBdXRob3JpdHkxFTATBgNVBAMMDEdyZWVuIFRMUyBD
QTAeFw0yMDA1MjAxODE0NTRaFw0yMjA1MjAxODE0NTRaMGUxCzAJBgNVBAYTAk5P
MREwDwYDVQQKDAhHcmVlbiBBUzEkMCIGA1UECwwbR3JlZW4gQ2VydGlmaWNhdGUg
QXV0aG9yaXR5MR0wGwYDVQQDDBRSZW50LWEtQ2FyIEFnZW50IEFwcDCCAiIwDQYJ
KoZIhvcNAQEBBQADggIPADCCAgoCggIBAOkfdJum5yiRNdvOUF7CocsMw1FADOJN
J1Crmlr3jrOt3V/3fn/bs/BYPyndGhZMtru5o+1XsLQvkmAODiewCRTCPblHqaPL
9F/6H6oTjel3w4DQp4qwxmoALMIumZxr95YcwbvK8dnNbT3185O/eklFb+Xp707e
1TFK5XVVQE0LGqMRVcB46rVLshh0A4hlqYv04bmtRDsmV6uRHoM2vn3Ti0Eo9+Ey
SxoQ6Ya2fpBaJqKHOLwXQoPVRBNdPOJhEEuxGiJReB3W+ZKKodVWTOxkPBhFW1cf
yC9NUiJaca0S40KiwQ67QTUbBoPeR1S2LDJV2H3cesNuNrrLuxhzExDQ5uOvZrnE
7qTWcYpBRiKFwGAkoHrS5yYIh87xTw39+CAx8h0p4iSJWDyD2L8if7XHFVbpxDcz
bs2e/anWIXw/BozLl3PHJfGj0TsNviQOo73kp3niQbU5eM8jBuoL1Pt5HFfX4Wzh
NQzCO3NEVgJdXPQokDMZsH9ATDGbQquW52LbfT8h41rhTssd6gMoaWu4Ds6wwxJ4
vK3teHiwNhlFHgBiCixfkydp7gkLqrg2ZHWEDXLoRg+YACdJvnMN+4vhLvMYTFwd
wVNg/m5BLcIQ5XPekGxGWdyIuvCbq87FXAaPMrEhCXdXbns0JrJrWnW9hM8qrgR5
HXWhMAdZWa59AgMBAAGjggEXMIIBEzAOBgNVHQ8BAf8EBAMCBaAwCQYDVR0TBAIw
ADAdBgNVHSUEFjAUBggrBgEFBQcDAQYIKwYBBQUHAwIwHQYDVR0OBBYEFNIT7RMb
XGShMeXxWCnUUuCOnsgcMB8GA1UdIwQYMBaAFOu/GzFkRW0F4NsVbK78e/gwID8z
MDkGCCsGAQUFBwEBBC0wKzApBggrBgEFBQcwAoYdaHR0cDovL2dyZWVuLm5vL2Nh
L3Rscy1jYS5jZXIwLgYDVR0fBCcwJTAjoCGgH4YdaHR0cDovL2dyZWVuLm5vL2Nh
L3Rscy1jYS5jcmwwLAYDVR0RBCUwI4IIZ3JlZW4ubm+CDHd3dy5ncmVlbi5ub4IJ
bG9jYWxob3N0MA0GCSqGSIb3DQEBCwUAA4ICAQACtSumrV2pSyqJvuCuj+8j88rW
H/HENwLaEV9AKjtSVAwns0b/S1KryMO87d86wmHt42/OYROQcH/vpa2c/Qdtb3hU
NUaB8EuJDFXKPAOD4CLDxcNhqO/j6StAkUgHEdCOYoRg7SZlARyga/PxOMK9IrM/
ork5mOBMfJTUz0FqjmvLH1GUnLzOPV3O25ESp6XxOEdoukKtL4V54V4JOo0iAOCD
eDJKp4r7ZRFgAWdjaPNTK256Cbj3fKCdZ4ghUk24cOyEH804G/U0r97QS78UQhXC
Fb+APHE1rYf4fxZdBjJvScT5JE+1gdaHvDv4qSS8q/YUD3lfcLhhNvrZ5gq/ukhc
/levQgQqrybHEpgt1uybGe6n7A6+HJP8OuhcHm6IW14+qzl4AipkGByq50DAXv53
U4sMN4i5ySuWzAH2ets6L0DUzhsoap4XQy69TZBFrT7oNzdLrcwUZT2TWWNVF0PC
xpsyjT0JFzuTQ1jy6zeFVslS0s/ZEMsd98uRQXUwDRhEiN65+CjpAXY9aM8fZV5/
RC1mDqemjUur3aCVsCt22ADzDQia6bv7rOc+s8ebGYLzY+Z0hdbSzkznlOWa5klK
a6HYKomJPeMxEV5qgbRP7QQ6Wo6DdWHV4EQgJpdum2/SCbMfImWSpRxkAyGaljyP
SFU0yiHXOlErcd5Fqw==
-----END CERTIFICATE-----
