Certificate:
    Data:
        Version: 3 (0x2)
        Serial Number:
            74:4a:3d:35:71:d1:33:ff:6d:24:ac:66:7d:08:31:ef:7a:89:af:94
        Signature Algorithm: sha256WithRSAEncryption
        Issuer: C=NO, O=Green AS, OU=Green Certificate Authority, CN=Green TLS CA
        Validity
            Not Before: Jun 20 14:58:19 2020 GMT
            Not After : Jun 20 14:58:19 2022 GMT
        Subject: C=NO, O=Green AS, OU=Green Certificate Authority, CN=Team 29 Agent App
        Subject Public Key Info:
            Public Key Algorithm: rsaEncryption
                RSA Public-Key: (4096 bit)
                Modulus:
                    00:d0:60:43:7e:4b:be:7d:3d:d2:6f:07:b6:d7:37:
                    a4:be:b1:6f:47:60:05:b8:be:ba:f4:f7:d9:58:ee:
                    0d:b2:1d:be:86:2d:57:e1:e1:83:79:ff:73:0f:3b:
                    13:c7:92:84:79:c4:f8:7b:fb:33:83:e0:1c:91:1d:
                    52:82:95:85:ad:d0:35:19:11:71:40:97:3f:d5:b9:
                    63:3e:b5:b4:e3:d8:02:c0:45:bb:a1:e1:63:2f:87:
                    9d:f6:fe:af:79:b8:b0:3a:f2:b1:dc:10:5e:3b:ae:
                    c7:f4:ab:56:0a:fa:fa:53:a6:a0:c8:f8:d7:a1:d1:
                    5a:d3:ac:6b:a1:7b:19:f6:5f:29:b1:1c:c9:ed:aa:
                    58:4b:29:c7:1b:fb:1f:10:a3:01:d9:71:6b:72:57:
                    69:bb:2f:e6:b2:40:45:4f:74:dc:60:3a:e5:ec:b3:
                    70:6b:68:87:39:45:08:96:85:d9:6a:ac:9a:9d:ae:
                    f9:55:89:f6:c6:89:03:c7:ca:cb:1b:5f:53:5e:84:
                    8e:25:29:1d:33:c9:c3:40:03:c8:b2:84:79:38:c6:
                    e3:d5:69:ca:13:33:60:28:28:40:2f:60:93:c0:65:
                    cc:6c:82:32:10:4a:0a:28:ac:dc:90:62:1e:38:c7:
                    f1:37:9d:e6:c4:09:ad:c5:e9:68:1b:16:db:15:21:
                    8e:85:59:1e:ef:79:50:fd:de:77:f0:66:1f:6b:3c:
                    5d:46:d0:3e:c4:0f:55:a4:7b:d2:7e:d6:ad:26:a1:
                    14:27:e5:86:62:e2:69:f9:bb:2a:d8:85:83:0a:13:
                    f8:14:10:a6:26:55:aa:3b:f3:df:25:1b:49:1b:9b:
                    7a:60:e1:ed:8a:6d:d4:57:34:ab:4e:e2:a1:00:2c:
                    39:2f:4f:aa:3a:65:9f:23:0a:b5:e0:f5:2d:b5:be:
                    c2:a9:c0:23:19:5d:91:4d:85:09:7d:cc:20:05:48:
                    ca:80:5e:b8:8e:36:f3:39:78:ca:bd:01:b2:f2:55:
                    84:ca:09:f3:34:fd:9c:8a:f7:ee:50:4f:eb:9f:0a:
                    70:e0:45:b7:ae:43:0d:36:63:4b:57:e0:3e:c3:2a:
                    41:13:4d:6e:64:92:1e:2f:6c:b6:40:93:c3:83:f3:
                    a3:9c:a9:0f:d5:0b:da:c0:3a:a6:df:30:19:c0:cf:
                    c3:bf:1d:fa:1e:b3:db:df:f6:b0:dd:87:3b:cb:f3:
                    92:86:c1:1f:f2:e3:19:ec:1a:7d:52:aa:3f:8d:ad:
                    8d:e5:ce:3a:ce:03:30:19:c3:6c:e7:97:fd:2d:f2:
                    92:f3:7d:8f:3e:79:19:72:f7:1a:c6:2b:ac:38:79:
                    81:a8:b5:1b:46:e7:4a:7d:9d:cd:f9:4c:20:28:8c:
                    f1:b6:49
                Exponent: 65537 (0x10001)
        X509v3 extensions:
            X509v3 Key Usage: critical
                Digital Signature
            X509v3 Basic Constraints: 
                CA:FALSE
            X509v3 Extended Key Usage: 
                TLS Web Client Authentication
            X509v3 Subject Key Identifier: 
                8B:A4:F6:BB:99:28:94:89:3F:AB:71:E3:D6:B3:47:C9:85:03:76:21
            X509v3 Authority Key Identifier: 
                keyid:86:F4:C6:F3:9C:68:1D:0E:6D:42:78:2A:89:D2:A0:16:07:03:F0:70

            Authority Information Access: 
                CA Issuers - URI:http://green.no/ca/tls-ca.cer

            X509v3 CRL Distribution Points: 

                Full Name:
                  URI:http://green.no/ca/tls-ca.crl

    Signature Algorithm: sha256WithRSAEncryption
         30:e2:72:63:1f:86:7f:75:fe:32:05:00:30:67:08:82:55:14:
         3e:c5:ca:8d:88:da:5d:9d:d3:be:4f:5b:bc:6b:b4:f0:5d:6d:
         ce:ea:d0:a4:29:49:33:9a:86:80:c2:28:56:f9:74:c0:55:24:
         92:c1:de:2c:bb:1f:28:a7:06:71:cf:19:0a:f9:bc:15:9e:38:
         b3:71:98:40:9a:f6:96:af:c4:23:28:60:28:ea:74:6e:81:78:
         a1:00:65:1e:5b:56:de:c6:50:47:25:64:70:2a:91:d4:da:e2:
         f3:42:43:38:5a:45:22:d4:1a:70:ab:28:80:32:8d:96:bd:ff:
         2e:a0:46:f6:e7:6b:8a:f3:ed:6b:b5:b5:e6:22:f1:4d:c3:70:
         a6:70:a7:2c:a8:7e:78:76:79:3b:b6:7c:e4:f1:74:40:bb:99:
         8f:3c:31:4d:11:4c:c6:42:e3:40:af:6a:48:b8:1e:52:3d:41:
         55:76:32:63:58:88:e7:3f:8b:25:b6:c9:97:84:61:6a:df:6f:
         ee:d0:6e:49:ae:fd:03:78:79:d5:be:79:36:58:b0:c3:4e:c4:
         84:ac:1a:2f:1e:a9:6e:60:93:f5:a4:ae:91:09:60:7d:c1:c7:
         a9:18:bc:07:8e:9b:51:5a:ed:a4:54:23:97:53:02:d7:94:9d:
         f0:e9:44:53:ce:ad:2d:da:cb:c1:db:a7:3c:92:42:82:36:fe:
         31:3d:b6:63:4d:c9:02:94:5f:81:32:69:a3:d0:14:6a:1f:5d:
         db:fe:37:9f:ca:00:a9:3a:c6:4d:8f:3b:4a:60:90:59:31:82:
         40:9b:b6:14:3f:9d:7d:36:4d:de:01:5e:9e:e4:0f:66:96:b7:
         a5:d8:6c:dd:40:fd:bc:6d:00:2c:24:3a:5e:1e:60:4a:91:78:
         52:33:16:30:ee:93:66:29:56:bf:35:35:96:f8:7d:d1:d9:ae:
         be:17:0f:35:48:3b:36:0c:16:eb:8f:9a:74:20:fd:3d:9a:5e:
         8e:fd:71:a5:07:96:71:2a:d9:a2:bc:0f:23:c0:48:d1:ec:11:
         7a:6c:27:c8:8b:64:57:d6:92:13:be:64:44:f1:3f:fa:5d:d2:
         41:4a:fc:3a:33:0c:64:be:4e:fc:8c:18:7f:2c:c1:a3:07:57:
         4f:3e:88:48:e5:b5:8d:51:a6:4a:8c:46:fa:cb:12:65:5a:b6:
         40:a0:e8:61:49:8b:b0:83:50:b2:20:ff:f6:71:79:22:16:c9:
         aa:29:c1:75:31:3c:d3:b6:f9:4a:03:1b:17:93:fb:c4:64:51:
         95:4e:15:c8:ae:90:a9:45:89:20:61:54:54:4e:6b:f8:db:77:
         24:17:ad:93:51:89:06:d4
-----BEGIN CERTIFICATE-----
MIIGLDCCBBSgAwIBAgIUdEo9NXHRM/9tJKxmfQgx73qJr5QwDQYJKoZIhvcNAQEL
BQAwXTELMAkGA1UEBhMCTk8xETAPBgNVBAoMCEdyZWVuIEFTMSQwIgYDVQQLDBtH
cmVlbiBDZXJ0aWZpY2F0ZSBBdXRob3JpdHkxFTATBgNVBAMMDEdyZWVuIFRMUyBD
QTAeFw0yMDA2MjAxNDU4MTlaFw0yMjA2MjAxNDU4MTlaMGIxCzAJBgNVBAYTAk5P
MREwDwYDVQQKDAhHcmVlbiBBUzEkMCIGA1UECwwbR3JlZW4gQ2VydGlmaWNhdGUg
QXV0aG9yaXR5MRowGAYDVQQDDBFUZWFtIDI5IEFnZW50IEFwcDCCAiIwDQYJKoZI
hvcNAQEBBQADggIPADCCAgoCggIBANBgQ35Lvn090m8Httc3pL6xb0dgBbi+uvT3
2VjuDbIdvoYtV+Hhg3n/cw87E8eShHnE+Hv7M4PgHJEdUoKVha3QNRkRcUCXP9W5
Yz61tOPYAsBFu6HhYy+Hnfb+r3m4sDrysdwQXjuux/SrVgr6+lOmoMj416HRWtOs
a6F7GfZfKbEcye2qWEspxxv7HxCjAdlxa3JXabsv5rJARU903GA65eyzcGtohzlF
CJaF2Wqsmp2u+VWJ9saJA8fKyxtfU16EjiUpHTPJw0ADyLKEeTjG49VpyhMzYCgo
QC9gk8BlzGyCMhBKCiis3JBiHjjH8Ted5sQJrcXpaBsW2xUhjoVZHu95UP3ed/Bm
H2s8XUbQPsQPVaR70n7WrSahFCflhmLiafm7KtiFgwoT+BQQpiZVqjvz3yUbSRub
emDh7Ypt1Fc0q07ioQAsOS9PqjplnyMKteD1LbW+wqnAIxldkU2FCX3MIAVIyoBe
uI428zl4yr0BsvJVhMoJ8zT9nIr37lBP658KcOBFt65DDTZjS1fgPsMqQRNNbmSS
Hi9stkCTw4Pzo5ypD9UL2sA6pt8wGcDPw78d+h6z29/2sN2HO8vzkobBH/LjGewa
fVKqP42tjeXOOs4DMBnDbOeX/S3ykvN9jz55GXL3GsYrrDh5gai1G0bnSn2dzflM
ICiM8bZJAgMBAAGjgd4wgdswDgYDVR0PAQH/BAQDAgeAMAkGA1UdEwQCMAAwEwYD
VR0lBAwwCgYIKwYBBQUHAwIwHQYDVR0OBBYEFIuk9ruZKJSJP6tx49azR8mFA3Yh
MB8GA1UdIwQYMBaAFIb0xvOcaB0ObUJ4KonSoBYHA/BwMDkGCCsGAQUFBwEBBC0w
KzApBggrBgEFBQcwAoYdaHR0cDovL2dyZWVuLm5vL2NhL3Rscy1jYS5jZXIwLgYD
VR0fBCcwJTAjoCGgH4YdaHR0cDovL2dyZWVuLm5vL2NhL3Rscy1jYS5jcmwwDQYJ
KoZIhvcNAQELBQADggIBADDicmMfhn91/jIFADBnCIJVFD7Fyo2I2l2d075PW7xr
tPBdbc7q0KQpSTOahoDCKFb5dMBVJJLB3iy7HyinBnHPGQr5vBWeOLNxmECa9pav
xCMoYCjqdG6BeKEAZR5bVt7GUEclZHAqkdTa4vNCQzhaRSLUGnCrKIAyjZa9/y6g
Rvbna4rz7Wu1teYi8U3DcKZwpyyofnh2eTu2fOTxdEC7mY88MU0RTMZC40Cvaki4
HlI9QVV2MmNYiOc/iyW2yZeEYWrfb+7Qbkmu/QN4edW+eTZYsMNOxISsGi8eqW5g
k/WkrpEJYH3Bx6kYvAeOm1Fa7aRUI5dTAteUnfDpRFPOrS3ay8HbpzySQoI2/jE9
tmNNyQKUX4EyaaPQFGofXdv+N5/KAKk6xk2PO0pgkFkxgkCbthQ/nX02Td4BXp7k
D2aWt6XYbN1A/bxtACwkOl4eYEqReFIzFjDuk2YpVr81NZb4fdHZrr4XDzVIOzYM
FuuPmnQg/T2aXo79caUHlnEq2aK8DyPASNHsEXpsJ8iLZFfWkhO+ZETxP/pd0kFK
/DozDGS+TvyMGH8swaMHV08+iEjltY1RpkqMRvrLEmVatkCg6GFJi7CDULIg//Zx
eSIWyaopwXUxPNO2+UoDGxeT+8RkUZVOFciukKlFiSBhVFROa/jbdyQXrZNRiQbU
-----END CERTIFICATE-----
