Certificate:
    Data:
        Version: 3 (0x2)
        Serial Number:
            25:84:d2:dd:47:93:a8:97:14:a0:7f:36:cc:92:8c:f1:de:81:c8:c4
        Signature Algorithm: sha256WithRSAEncryption
        Issuer: C=NO, O=Green AS, OU=Green Certificate Authority, CN=Green Root CA
        Validity
            Not Before: Jun 20 14:58:08 2020 GMT
            Not After : Jun 20 14:58:08 2030 GMT
        Subject: C=NO, O=Green AS, OU=Green Certificate Authority, CN=Green TLS CA
        Subject Public Key Info:
            Public Key Algorithm: rsaEncryption
                RSA Public-Key: (4096 bit)
                Modulus:
                    00:c9:79:4c:0b:1f:00:bb:d9:de:8b:76:5f:f5:b2:
                    65:0e:33:5c:f5:67:33:5f:bc:7e:76:e0:bf:0b:e6:
                    0a:09:82:b5:86:67:09:be:af:9f:6b:aa:97:8b:e8:
                    e3:08:e1:b6:85:cf:f0:51:0e:f8:0e:06:53:1d:cc:
                    ff:a5:15:48:96:a7:87:09:50:78:79:8f:3b:de:ca:
                    42:70:92:22:ff:5a:c6:8c:bd:2e:bb:2c:f3:04:23:
                    7f:a8:47:3b:30:8e:ae:44:96:e2:3d:29:2b:1a:10:
                    fa:83:89:e2:a7:c3:8e:8a:a4:13:83:3e:02:d0:32:
                    34:0a:f4:14:d1:b1:f5:37:44:7a:87:81:00:73:40:
                    ba:29:8e:9d:8f:21:16:51:ce:50:48:c7:59:ff:3f:
                    1a:54:4f:d6:7a:0d:64:46:0c:85:8d:ba:cc:a9:c2:
                    5c:4c:5e:23:81:eb:c4:c0:8d:48:7f:ea:6a:43:e8:
                    37:c8:ea:6b:bc:13:47:a8:a0:36:c9:9a:77:79:ea:
                    7d:6d:80:30:f5:89:a5:2b:3e:ea:05:7e:d8:1d:33:
                    4a:d1:04:a6:55:a4:95:2a:55:b6:e9:d8:91:9e:78:
                    49:71:66:b6:a8:1c:d2:20:b6:e3:6d:f2:b2:83:5a:
                    ab:45:f5:c2:69:51:42:9f:c4:af:fb:83:bb:5d:40:
                    25:92:5d:bf:37:2a:2e:a0:14:bb:66:7d:12:49:d8:
                    0e:1a:01:e1:56:ef:60:01:9b:0c:70:ca:05:a8:db:
                    07:3c:c3:c9:cd:7d:ec:de:68:2b:8f:43:1a:39:16:
                    77:4d:7b:1e:5c:c4:4b:7b:bc:3f:d2:cc:98:ba:42:
                    ac:18:3a:fe:c4:06:51:91:c7:38:bf:ef:d1:47:1f:
                    8e:df:8f:66:97:38:29:66:6c:8a:42:71:13:18:fd:
                    c0:dd:f7:87:b3:f3:59:f2:db:88:57:a9:3a:35:a2:
                    d3:1a:bb:52:99:35:c7:b3:49:47:5c:7a:29:d4:af:
                    83:2c:83:3a:3d:66:52:cf:bf:20:4d:ec:00:dc:60:
                    ef:f4:35:1c:71:39:3c:7a:b5:a6:6c:43:a6:ad:4f:
                    af:a6:e7:8d:95:a4:98:65:e5:e8:bb:8b:80:2a:bf:
                    a9:d3:76:52:29:00:f0:d9:8f:3f:a0:0a:35:d9:ff:
                    a7:65:42:65:51:65:16:c5:78:88:c6:67:3d:49:49:
                    6d:8f:4f:4e:da:39:c3:ef:dd:17:6a:b9:56:1e:30:
                    2f:84:54:ea:93:e1:f2:b2:22:e9:12:a7:da:f3:b1:
                    bb:77:8c:0b:93:f9:8c:e1:2b:66:17:bc:a7:aa:e3:
                    81:46:41:01:d0:26:c2:fa:31:b7:61:0e:04:b2:86:
                    b5:e7:b5
                Exponent: 65537 (0x10001)
        X509v3 extensions:
            X509v3 Key Usage: critical
                Certificate Sign, CRL Sign
            X509v3 Basic Constraints: critical
                CA:TRUE, pathlen:0
            X509v3 Subject Key Identifier: 
                86:F4:C6:F3:9C:68:1D:0E:6D:42:78:2A:89:D2:A0:16:07:03:F0:70
            X509v3 Authority Key Identifier: 
                keyid:09:18:ED:88:65:D9:BF:15:A4:E5:16:71:17:5F:10:11:D8:BA:4C:39

            Authority Information Access: 
                CA Issuers - URI:http://green.no/ca/root-ca.cer

            X509v3 CRL Distribution Points: 

                Full Name:
                  URI:http://green.no/ca/root-ca.crl

    Signature Algorithm: sha256WithRSAEncryption
         a1:e6:a1:26:14:97:a3:ad:79:d2:45:93:29:e5:d1:ec:da:a4:
         c5:e8:37:b9:14:a1:43:54:bb:2a:33:cd:be:bd:3f:30:e6:91:
         fe:2a:6d:20:b4:bf:80:98:85:6d:31:f5:d4:ab:0d:42:6b:a4:
         43:57:f3:c3:e9:28:75:80:57:df:02:0d:70:23:0a:62:7f:83:
         92:3e:24:e8:ff:d4:e2:91:6b:54:71:07:40:00:11:da:1a:c4:
         10:7a:43:16:12:b7:a4:5d:c9:81:7b:20:2e:2f:98:74:81:75:
         54:90:f9:e2:f1:c0:2c:15:44:6a:2f:29:72:49:22:72:74:85:
         6a:b4:c8:1a:c5:3b:ae:bf:49:c9:c9:e9:70:4e:5d:aa:f4:01:
         e7:0e:94:29:5d:11:aa:fc:2b:03:b5:92:24:d8:37:af:7f:23:
         4a:eb:c4:ba:bf:98:e8:5b:73:53:14:06:79:37:1a:12:fd:c8:
         81:92:1d:95:04:2c:d6:68:ba:71:cc:f7:21:6d:0b:66:5b:c4:
         4d:27:ce:f7:11:32:db:f1:22:b1:cf:fd:5a:e6:03:04:95:47:
         c1:30:63:3d:04:68:b0:0e:01:a3:54:89:08:b2:cf:5c:c0:68:
         d1:1c:49:c5:dd:1a:9e:a6:9f:4a:e4:48:8d:8d:06:44:1b:d5:
         6a:84:0a:96:61:4b:f6:dd:c0:1e:27:d6:05:63:f7:94:45:dc:
         f4:e2:6d:50:f4:71:9d:b3:2e:a1:d3:1f:b9:45:d3:87:3a:51:
         ba:dc:ae:a2:67:44:bd:56:9e:b4:ca:3a:db:d8:d0:f8:1e:21:
         c5:bf:22:c4:d3:c0:dd:12:ad:c6:42:c5:49:fa:46:11:42:af:
         79:7e:ce:2d:4b:cd:50:4d:5c:6d:8a:de:97:90:63:42:e5:b9:
         6b:96:1b:d2:79:f7:31:fe:18:93:9c:19:fc:63:3e:78:84:2c:
         f2:39:10:b7:f4:7d:99:ce:9a:7e:9a:e2:d9:e4:fd:dc:cf:c6:
         03:c2:fa:20:39:e9:49:36:33:7f:2b:f9:8b:a8:43:02:5a:81:
         93:59:b3:2f:d6:6b:b0:99:af:52:97:3f:ae:14:93:f7:be:45:
         f9:98:ba:9e:50:27:33:1f:f9:df:70:03:d8:ec:2f:9e:68:c5:
         4f:e6:23:cc:43:08:de:77:a9:97:16:cd:86:b6:fe:8b:96:0a:
         80:79:a4:4b:4f:da:89:3d:5a:48:99:fa:0a:5d:57:45:92:28:
         86:ca:e7:c0:21:d8:82:f5:b7:e1:5a:48:9a:68:31:2e:a1:0a:
         fe:f5:ff:f4:ba:dd:27:23:ba:c2:ab:f8:05:51:c4:de:21:62:
         ab:46:00:2a:d0:25:34:82
-----BEGIN CERTIFICATE-----
MIIGHjCCBAagAwIBAgIUJYTS3UeTqJcUoH82zJKM8d6ByMQwDQYJKoZIhvcNAQEL
BQAwXjELMAkGA1UEBhMCTk8xETAPBgNVBAoMCEdyZWVuIEFTMSQwIgYDVQQLDBtH
cmVlbiBDZXJ0aWZpY2F0ZSBBdXRob3JpdHkxFjAUBgNVBAMMDUdyZWVuIFJvb3Qg
Q0EwHhcNMjAwNjIwMTQ1ODA4WhcNMzAwNjIwMTQ1ODA4WjBdMQswCQYDVQQGEwJO
TzERMA8GA1UECgwIR3JlZW4gQVMxJDAiBgNVBAsMG0dyZWVuIENlcnRpZmljYXRl
IEF1dGhvcml0eTEVMBMGA1UEAwwMR3JlZW4gVExTIENBMIICIjANBgkqhkiG9w0B
AQEFAAOCAg8AMIICCgKCAgEAyXlMCx8Au9nei3Zf9bJlDjNc9WczX7x+duC/C+YK
CYK1hmcJvq+fa6qXi+jjCOG2hc/wUQ74DgZTHcz/pRVIlqeHCVB4eY873spCcJIi
/1rGjL0uuyzzBCN/qEc7MI6uRJbiPSkrGhD6g4nip8OOiqQTgz4C0DI0CvQU0bH1
N0R6h4EAc0C6KY6djyEWUc5QSMdZ/z8aVE/Weg1kRgyFjbrMqcJcTF4jgevEwI1I
f+pqQ+g3yOprvBNHqKA2yZp3eep9bYAw9YmlKz7qBX7YHTNK0QSmVaSVKlW26diR
nnhJcWa2qBzSILbjbfKyg1qrRfXCaVFCn8Sv+4O7XUAlkl2/NyouoBS7Zn0SSdgO
GgHhVu9gAZsMcMoFqNsHPMPJzX3s3mgrj0MaORZ3TXseXMRLe7w/0syYukKsGDr+
xAZRkcc4v+/RRx+O349mlzgpZmyKQnETGP3A3feHs/NZ8tuIV6k6NaLTGrtSmTXH
s0lHXHop1K+DLIM6PWZSz78gTewA3GDv9DUccTk8erWmbEOmrU+vpueNlaSYZeXo
u4uAKr+p03ZSKQDw2Y8/oAo12f+nZUJlUWUWxXiIxmc9SUltj09O2jnD790XarlW
HjAvhFTqk+HysiLpEqfa87G7d4wLk/mM4StmF7ynquOBRkEB0CbC+jG3YQ4Esoa1
57UCAwEAAaOB1DCB0TAOBgNVHQ8BAf8EBAMCAQYwEgYDVR0TAQH/BAgwBgEB/wIB
ADAdBgNVHQ4EFgQUhvTG85xoHQ5tQngqidKgFgcD8HAwHwYDVR0jBBgwFoAUCRjt
iGXZvxWk5RZxF18QEdi6TDkwOgYIKwYBBQUHAQEELjAsMCoGCCsGAQUFBzAChh5o
dHRwOi8vZ3JlZW4ubm8vY2Evcm9vdC1jYS5jZXIwLwYDVR0fBCgwJjAkoCKgIIYe
aHR0cDovL2dyZWVuLm5vL2NhL3Jvb3QtY2EuY3JsMA0GCSqGSIb3DQEBCwUAA4IC
AQCh5qEmFJejrXnSRZMp5dHs2qTF6De5FKFDVLsqM82+vT8w5pH+Km0gtL+AmIVt
MfXUqw1Ca6RDV/PD6Sh1gFffAg1wIwpif4OSPiTo/9TikWtUcQdAABHaGsQQekMW
ErekXcmBeyAuL5h0gXVUkPni8cAsFURqLylySSJydIVqtMgaxTuuv0nJyelwTl2q
9AHnDpQpXRGq/CsDtZIk2DevfyNK68S6v5joW3NTFAZ5NxoS/ciBkh2VBCzWaLpx
zPchbQtmW8RNJ873ETLb8SKxz/1a5gMElUfBMGM9BGiwDgGjVIkIss9cwGjRHEnF
3Rqepp9K5EiNjQZEG9VqhAqWYUv23cAeJ9YFY/eURdz04m1Q9HGdsy6h0x+5RdOH
OlG63K6iZ0S9Vp60yjrb2ND4HiHFvyLE08DdEq3GQsVJ+kYRQq95fs4tS81QTVxt
it6XkGNC5blrlhvSefcx/hiTnBn8Yz54hCzyORC39H2Zzpp+muLZ5P3cz8YDwvog
OelJNjN/K/mLqEMCWoGTWbMv1muwma9Slz+uFJP3vkX5mLqeUCczH/nfcAPY7C+e
aMVP5iPMQwjed6mXFs2Gtv6LlgqAeaRLT9qJPVpImfoKXVdFkiiGyufAIdiC9bfh
WkiaaDEuoQr+9f/0ut0nI7rCq/gFUcTeIWKrRgAq0CU0gg==
-----END CERTIFICATE-----
