Certificate:
    Data:
        Version: 3 (0x2)
        Serial Number:
            2b:a2:a4:f6:a2:0d:36:27:3e:69:db:c0:51:ff:1a:fd:3b:0d:a8:eb
        Signature Algorithm: sha256WithRSAEncryption
        Issuer: C=NO, O=Green AS, OU=Green Certificate Authority, CN=Green Root CA
        Validity
            Not Before: May 20 18:14:50 2020 GMT
            Not After : May 20 18:14:50 2030 GMT
        Subject: C=NO, O=Green AS, OU=Green Certificate Authority, CN=Green TLS CA
        Subject Public Key Info:
            Public Key Algorithm: rsaEncryption
                RSA Public-Key: (4096 bit)
                Modulus:
                    00:b4:02:04:2c:4f:df:af:d0:84:fe:e8:6c:3a:e0:
                    30:68:44:d6:10:ff:a6:31:c4:78:9b:62:c0:b0:d5:
                    7d:2f:f8:a3:87:df:ef:38:91:aa:8d:55:41:a8:e2:
                    04:d1:2d:07:52:c9:52:75:71:73:83:30:67:39:f5:
                    36:29:bc:dc:b5:df:4d:68:67:e3:bb:42:9a:20:28:
                    35:e8:8d:a6:c6:f1:d2:d8:de:84:b0:f5:ee:f1:5b:
                    80:3f:a6:ee:d6:b7:2e:82:22:b0:95:95:60:35:3d:
                    c4:29:c6:4a:ad:fb:92:50:78:c2:87:8a:19:79:d4:
                    8c:66:84:be:9e:09:11:14:1b:06:37:48:84:2a:ba:
                    a4:c1:ca:4c:b9:21:33:1a:62:ef:0f:27:6f:5e:82:
                    94:a6:eb:54:0d:f2:cb:69:49:ef:2e:0a:73:b6:31:
                    67:3d:ce:4f:e6:0e:c2:ff:86:e8:6f:b6:3c:f8:9b:
                    6d:58:1d:fe:fc:aa:fb:d6:95:be:ab:d9:76:2c:20:
                    a7:62:0b:08:bd:29:f1:eb:35:ae:de:57:bb:9e:fb:
                    c4:b2:38:97:0b:89:4a:e4:50:b2:8a:89:50:b1:7e:
                    d1:cf:dd:b4:ae:e1:6f:d8:37:ec:e7:3e:80:7f:c9:
                    b5:01:fa:0c:37:d5:3f:cf:be:4e:d3:e7:c5:66:7e:
                    e3:b2:92:b8:e5:33:06:b9:a3:f1:96:b0:f6:52:d1:
                    b7:1a:bb:a8:63:54:b0:8c:61:8c:70:f6:fa:87:d2:
                    c0:55:81:c1:c4:b7:bd:a5:5e:1b:75:90:44:57:a9:
                    fc:a4:dd:0f:1a:f8:4c:bf:aa:1b:b6:60:2b:16:a9:
                    54:a1:a2:61:06:51:18:9f:b8:a3:8a:7d:75:87:76:
                    ef:d3:2f:62:7b:5d:94:67:34:4b:4c:e0:81:b0:df:
                    99:49:4e:44:ae:a6:e7:b9:31:fa:5c:a9:95:a6:9e:
                    b7:32:12:19:0b:39:f7:e1:9a:92:13:28:eb:54:81:
                    bf:2b:65:f3:4a:3a:19:52:95:09:0c:f5:7c:0f:53:
                    29:4a:38:59:06:d9:82:e1:52:a5:c8:0c:ea:41:75:
                    91:05:49:dc:45:8e:20:cd:04:e0:f4:0d:44:ab:bd:
                    bf:64:0c:9b:22:82:ee:f1:cc:f8:70:11:d2:59:e6:
                    cf:c3:61:ad:d6:b0:a3:eb:8c:6b:fd:98:60:c1:ec:
                    00:28:99:35:b8:93:d7:e7:e5:df:6d:79:47:12:67:
                    50:1d:2d:39:01:9a:f1:31:0a:76:1d:02:27:8c:b5:
                    75:73:a8:c7:6f:bf:81:58:12:4a:79:ac:64:10:2c:
                    73:aa:77:d1:63:f5:2d:5f:9d:f6:4f:0a:0d:b6:1d:
                    d0:84:bf
                Exponent: 65537 (0x10001)
        X509v3 extensions:
            X509v3 Key Usage: critical
                Certificate Sign, CRL Sign
            X509v3 Basic Constraints: critical
                CA:TRUE, pathlen:0
            X509v3 Subject Key Identifier: 
                EB:BF:1B:31:64:45:6D:05:E0:DB:15:6C:AE:FC:7B:F8:30:20:3F:33
            X509v3 Authority Key Identifier: 
                keyid:E5:7F:BE:AA:F9:94:DE:25:A9:23:CB:14:82:9E:B6:38:2B:43:20:DE

            Authority Information Access: 
                CA Issuers - URI:http://green.no/ca/root-ca.cer

            X509v3 CRL Distribution Points: 

                Full Name:
                  URI:http://green.no/ca/root-ca.crl

    Signature Algorithm: sha256WithRSAEncryption
         5b:bb:5a:d5:a1:f4:fe:a7:e3:ac:88:5c:97:d8:18:7d:3d:bc:
         84:e1:ae:b6:4c:3f:c0:37:57:f1:35:02:16:58:1b:fe:e1:8d:
         9a:ac:75:8d:61:a8:2b:86:a7:48:a4:41:a3:e5:b1:2d:c0:aa:
         8a:36:b8:65:fc:3c:5b:57:c0:60:a1:9d:82:38:93:52:8f:f2:
         df:36:4c:d9:89:4f:61:72:b2:27:50:7b:fe:5a:d7:83:be:54:
         24:37:9c:64:35:58:c1:69:f6:24:18:eb:ee:da:e4:92:77:36:
         3b:19:28:25:4a:7a:f1:4d:dd:1d:2e:72:01:2a:69:37:38:7b:
         cd:f8:ea:69:ae:a5:9e:c8:37:7e:13:d3:cd:68:93:d1:ab:df:
         4c:f4:3e:ad:0f:6a:78:79:67:7c:73:f9:67:27:7b:09:08:e0:
         22:63:8b:d1:8b:f1:e6:86:ba:29:93:ac:4a:2a:51:04:62:ea:
         80:68:3b:ca:0e:85:d3:9f:59:99:cd:06:52:13:a6:b6:ff:16:
         95:55:12:c9:cd:09:7c:1c:9d:6c:5a:ed:b4:77:5f:29:9f:32:
         f4:4a:8c:ed:f9:20:50:f1:dd:45:a2:5b:70:6a:3f:83:dd:0d:
         c7:f2:b9:23:a4:15:8a:7c:db:1c:4e:d5:f0:e0:74:67:8e:ab:
         b7:04:6e:04:ba:d0:9d:83:da:03:56:31:db:46:de:b4:92:0d:
         ac:23:67:82:98:53:17:20:94:2b:f4:73:86:22:2e:3d:61:10:
         b4:e8:08:c5:3f:a9:bf:93:b9:d7:cc:6f:a7:2f:2a:d1:c6:48:
         b5:fa:94:4e:cb:f7:2b:82:b9:d3:21:e1:b7:05:41:c6:34:3e:
         8b:60:3f:b1:ac:88:16:9b:55:73:5d:60:be:2f:40:e9:0f:a2:
         66:85:a4:b2:03:f9:c9:e1:9d:77:62:d4:a4:3f:ac:d8:ba:bf:
         c7:9c:04:4a:4b:84:9a:9b:5b:fe:88:a0:28:3e:ce:4e:8d:77:
         97:6e:46:8d:40:03:0d:6d:07:55:22:14:60:39:3d:7d:20:48:
         68:38:6c:46:15:4e:bd:39:37:98:9e:ae:70:74:09:5d:a4:f6:
         64:45:1e:04:d0:39:68:f0:9b:12:f7:03:ac:ef:4b:4e:28:a8:
         cc:21:4b:8a:68:68:09:34:0d:c0:5b:6a:88:5f:3f:b2:85:7e:
         47:fc:37:ec:9a:bd:bb:de:77:ed:dc:ee:11:01:77:94:b6:d7:
         29:ee:57:14:3e:b3:46:ab:cd:69:41:e7:3e:db:5b:26:ab:80:
         b0:ff:61:fa:cc:e7:0a:12:ad:fd:e7:8f:50:27:a1:83:a2:84:
         c4:18:77:94:51:d4:b2:77
-----BEGIN CERTIFICATE-----
MIIGHjCCBAagAwIBAgIUK6Kk9qINNic+advAUf8a/TsNqOswDQYJKoZIhvcNAQEL
BQAwXjELMAkGA1UEBhMCTk8xETAPBgNVBAoMCEdyZWVuIEFTMSQwIgYDVQQLDBtH
cmVlbiBDZXJ0aWZpY2F0ZSBBdXRob3JpdHkxFjAUBgNVBAMMDUdyZWVuIFJvb3Qg
Q0EwHhcNMjAwNTIwMTgxNDUwWhcNMzAwNTIwMTgxNDUwWjBdMQswCQYDVQQGEwJO
TzERMA8GA1UECgwIR3JlZW4gQVMxJDAiBgNVBAsMG0dyZWVuIENlcnRpZmljYXRl
IEF1dGhvcml0eTEVMBMGA1UEAwwMR3JlZW4gVExTIENBMIICIjANBgkqhkiG9w0B
AQEFAAOCAg8AMIICCgKCAgEAtAIELE/fr9CE/uhsOuAwaETWEP+mMcR4m2LAsNV9
L/ijh9/vOJGqjVVBqOIE0S0HUslSdXFzgzBnOfU2Kbzctd9NaGfju0KaICg16I2m
xvHS2N6EsPXu8VuAP6bu1rcugiKwlZVgNT3EKcZKrfuSUHjCh4oZedSMZoS+ngkR
FBsGN0iEKrqkwcpMuSEzGmLvDydvXoKUputUDfLLaUnvLgpztjFnPc5P5g7C/4bo
b7Y8+JttWB3+/Kr71pW+q9l2LCCnYgsIvSnx6zWu3le7nvvEsjiXC4lK5FCyiolQ
sX7Rz920ruFv2Dfs5z6Af8m1AfoMN9U/z75O0+fFZn7jspK45TMGuaPxlrD2UtG3
GruoY1SwjGGMcPb6h9LAVYHBxLe9pV4bdZBEV6n8pN0PGvhMv6obtmArFqlUoaJh
BlEYn7ijin11h3bv0y9ie12UZzRLTOCBsN+ZSU5ErqbnuTH6XKmVpp63MhIZCzn3
4ZqSEyjrVIG/K2XzSjoZUpUJDPV8D1MpSjhZBtmC4VKlyAzqQXWRBUncRY4gzQTg
9A1Eq72/ZAybIoLu8cz4cBHSWebPw2Gt1rCj64xr/ZhgwewAKJk1uJPX5+XfbXlH
EmdQHS05AZrxMQp2HQInjLV1c6jHb7+BWBJKeaxkECxzqnfRY/UtX532TwoNth3Q
hL8CAwEAAaOB1DCB0TAOBgNVHQ8BAf8EBAMCAQYwEgYDVR0TAQH/BAgwBgEB/wIB
ADAdBgNVHQ4EFgQU678bMWRFbQXg2xVsrvx7+DAgPzMwHwYDVR0jBBgwFoAU5X++
qvmU3iWpI8sUgp62OCtDIN4wOgYIKwYBBQUHAQEELjAsMCoGCCsGAQUFBzAChh5o
dHRwOi8vZ3JlZW4ubm8vY2Evcm9vdC1jYS5jZXIwLwYDVR0fBCgwJjAkoCKgIIYe
aHR0cDovL2dyZWVuLm5vL2NhL3Jvb3QtY2EuY3JsMA0GCSqGSIb3DQEBCwUAA4IC
AQBbu1rVofT+p+OsiFyX2Bh9PbyE4a62TD/AN1fxNQIWWBv+4Y2arHWNYagrhqdI
pEGj5bEtwKqKNrhl/DxbV8BgoZ2COJNSj/LfNkzZiU9hcrInUHv+WteDvlQkN5xk
NVjBafYkGOvu2uSSdzY7GSglSnrxTd0dLnIBKmk3OHvN+OpprqWeyDd+E9PNaJPR
q99M9D6tD2p4eWd8c/lnJ3sJCOAiY4vRi/Hmhropk6xKKlEEYuqAaDvKDoXTn1mZ
zQZSE6a2/xaVVRLJzQl8HJ1sWu20d18pnzL0Sozt+SBQ8d1Foltwaj+D3Q3H8rkj
pBWKfNscTtXw4HRnjqu3BG4EutCdg9oDVjHbRt60kg2sI2eCmFMXIJQr9HOGIi49
YRC06AjFP6m/k7nXzG+nLyrRxki1+pROy/crgrnTIeG3BUHGND6LYD+xrIgWm1Vz
XWC+L0DpD6JmhaSyA/nJ4Z13YtSkP6zYur/HnARKS4Sam1v+iKAoPs5OjXeXbkaN
QAMNbQdVIhRgOT19IEhoOGxGFU69OTeYnq5wdAldpPZkRR4E0Dlo8JsS9wOs70tO
KKjMIUuKaGgJNA3AW2qIXz+yhX5H/Dfsmr273nft3O4RAXeUttcp7lcUPrNGq81p
Qec+21smq4Cw/2H6zOcKEq39549QJ6GDooTEGHeUUdSydw==
-----END CERTIFICATE-----
