Certificate:
    Data:
        Version: 3 (0x2)
        Serial Number:
            48:0e:bd:90:d3:ab:90:8e:ae:75:48:de:a4:ff:19:25:0f:47:31:19
        Signature Algorithm: sha256WithRSAEncryption
        Issuer: C=NO, O=Green AS, OU=Green Certificate Authority, CN=Green Root CA
        Validity
            Not Before: Jun 20 14:58:06 2020 GMT
            Not After : Jun 20 14:58:06 2030 GMT
        Subject: C=NO, O=Green AS, OU=Green Certificate Authority, CN=Green Root CA
        Subject Public Key Info:
            Public Key Algorithm: rsaEncryption
                RSA Public-Key: (4096 bit)
                Modulus:
                    00:bf:52:c5:c8:66:92:e3:b6:1f:3a:b6:f3:15:a5:
                    b2:f2:07:47:38:d0:b4:a7:5e:10:96:89:1d:1e:99:
                    d2:ce:89:fd:19:3e:36:9a:11:57:05:54:5d:b2:d3:
                    1f:3e:eb:14:ba:ad:06:d8:c7:e5:fd:f1:88:04:d2:
                    43:8c:43:5b:e2:ee:7b:fc:55:08:a1:92:6b:60:5b:
                    47:22:3c:f7:bc:23:87:da:75:d9:e4:b4:d3:2a:99:
                    fc:ec:f3:b7:61:50:39:53:d4:b5:15:3c:1f:91:17:
                    40:86:12:16:3a:10:5d:c1:14:93:42:59:f0:d7:fc:
                    d6:0b:eb:99:b2:2d:a2:d4:7c:72:28:48:56:56:c6:
                    f6:96:ba:56:e8:6f:6d:9c:d4:bb:70:44:2b:2a:d6:
                    49:2e:d0:a6:98:c9:b7:cc:68:25:e2:ae:41:3a:cc:
                    1e:a0:aa:da:1f:1c:17:27:a5:13:a9:14:68:70:cd:
                    cf:d7:dd:36:33:08:36:1e:f7:dc:86:47:1a:fe:33:
                    10:7d:52:4f:52:f3:9a:ff:b5:01:13:64:26:65:c7:
                    ba:25:0f:5f:35:75:ac:51:d6:94:91:ad:6a:a6:77:
                    20:1c:88:16:91:5b:4b:66:69:ba:8c:d2:45:80:4d:
                    c5:91:5d:bb:1b:85:97:ab:3c:39:41:f5:e7:e5:93:
                    60:bc:8a:4c:3f:35:9f:66:f0:a3:47:54:98:c1:b0:
                    43:07:93:4f:28:53:bc:0e:1f:13:95:da:1e:fd:f0:
                    6a:23:9d:26:d1:98:55:61:2c:4b:2d:f4:d6:b3:d8:
                    96:7e:bd:61:21:5b:15:30:ed:69:7a:13:7d:9b:72:
                    01:f9:f2:e8:90:f1:5f:db:29:bb:49:8c:26:a3:68:
                    14:e1:94:c4:6c:19:dd:e2:f8:d0:da:bb:77:5f:3c:
                    d4:d8:d4:c9:66:48:ef:58:e4:1c:f9:0e:75:af:a9:
                    23:b0:c5:9f:b5:72:5f:c7:b0:98:df:64:79:5d:f8:
                    b3:8a:7a:34:39:3e:b3:42:b8:7f:44:b5:e7:1d:71:
                    d0:f9:99:81:95:a8:ce:25:09:87:97:cc:54:b4:44:
                    40:4d:a4:33:3d:b1:72:1e:fe:e9:25:7d:11:fb:f2:
                    40:e1:45:af:d4:13:c0:f0:82:f7:f4:f5:bc:46:99:
                    44:29:fc:24:0a:39:3f:d6:27:06:7c:04:b4:ab:3c:
                    b3:cc:3f:1f:4d:28:26:d5:0e:99:67:cd:6a:79:87:
                    30:12:14:4e:49:8e:c1:e4:62:d5:3f:38:23:ee:9c:
                    be:36:f4:c4:52:b9:ff:96:ef:ae:36:cb:60:03:d1:
                    73:cd:09:03:21:d7:5d:94:b4:ec:87:83:43:2e:5c:
                    30:30:1b
                Exponent: 65537 (0x10001)
        X509v3 extensions:
            X509v3 Key Usage: critical
                Certificate Sign, CRL Sign
            X509v3 Basic Constraints: critical
                CA:TRUE
            X509v3 Subject Key Identifier: 
                09:18:ED:88:65:D9:BF:15:A4:E5:16:71:17:5F:10:11:D8:BA:4C:39
            X509v3 Authority Key Identifier: 
                keyid:09:18:ED:88:65:D9:BF:15:A4:E5:16:71:17:5F:10:11:D8:BA:4C:39

    Signature Algorithm: sha256WithRSAEncryption
         55:6b:16:b2:40:66:4f:1e:09:f3:e7:a3:ee:74:53:e0:0c:a6:
         2c:02:f7:94:33:31:c7:64:82:57:6d:9b:db:b3:e6:b0:4b:34:
         7b:22:e4:f8:95:b6:27:34:f2:34:dc:80:84:4f:b9:e4:6f:d9:
         b5:32:e5:bb:91:c7:56:e3:50:c9:f8:56:03:e7:b9:d2:27:66:
         fe:06:e5:18:d6:5e:8a:f3:46:c8:15:61:e8:32:ba:67:fb:b8:
         84:d8:23:db:64:08:78:ed:75:5c:f5:46:b4:1f:56:81:d1:b6:
         9b:a7:1d:bf:9a:d9:ae:68:f0:fc:73:42:f2:c6:99:32:3a:0a:
         d1:e3:c0:78:96:5c:11:93:0b:06:72:9e:a9:34:20:32:da:27:
         fb:8c:2f:0e:7d:08:e4:1b:93:f4:7f:b2:3d:f2:02:ba:bb:8c:
         2f:ab:01:2c:c9:ed:77:b4:6f:c5:82:c2:00:45:1e:d1:81:0b:
         15:75:09:24:0d:07:44:0f:e0:64:b9:7f:97:98:6c:8b:71:8b:
         3a:43:d6:4d:32:cc:39:4a:15:b5:67:85:2b:92:cd:bc:fb:06:
         6d:40:fd:9c:e9:42:10:8c:d9:3d:3a:c2:44:3d:3b:6d:cc:dd:
         3d:9c:78:f8:5c:8a:4d:5d:85:88:2c:65:e5:ec:c9:13:cc:00:
         34:a6:cd:72:5e:99:d4:88:bb:4c:07:a8:00:04:04:a2:fa:d0:
         12:49:18:ff:e6:a9:1c:1a:b5:6d:89:d7:67:52:d7:cf:f8:51:
         4d:50:e7:71:fe:1a:aa:75:a5:ae:ad:54:8b:57:cb:94:cf:71:
         bb:14:2b:be:a2:0e:16:6b:46:8d:b1:a1:7f:81:18:2a:af:60:
         92:23:bd:62:6d:54:3f:a3:ad:2b:42:4f:2d:4e:42:2b:7a:3f:
         aa:61:c0:05:b9:4e:7a:5e:1b:fb:8b:10:ea:9c:09:13:44:14:
         7c:1c:40:ea:8f:5d:e3:67:46:85:41:c1:05:1f:fd:39:da:66:
         ec:b3:b9:97:81:4c:be:27:cb:97:ef:1d:b4:24:6a:e0:5d:f4:
         09:1e:62:89:fc:d9:9e:f9:a7:65:ec:b0:36:fa:29:d5:3a:7e:
         9e:3e:61:39:18:55:40:b9:f1:31:50:b5:78:c4:f8:f0:f9:0d:
         64:1c:d1:6b:f1:0d:18:e9:42:62:f1:dc:1c:76:1a:60:d9:07:
         3e:5e:6c:7d:50:35:9c:c0:18:78:9d:dc:ac:35:d2:d1:bc:d1:
         d9:ad:4f:31:09:3f:65:36:dd:04:61:ec:73:11:2e:83:8b:bb:
         af:dd:d8:c7:ce:30:c0:c0:d8:a3:35:5b:44:48:b3:47:6d:99:
         98:6d:00:45:70:87:96:ab
-----BEGIN CERTIFICATE-----
MIIFrTCCA5WgAwIBAgIUSA69kNOrkI6udUjepP8ZJQ9HMRkwDQYJKoZIhvcNAQEL
BQAwXjELMAkGA1UEBhMCTk8xETAPBgNVBAoMCEdyZWVuIEFTMSQwIgYDVQQLDBtH
cmVlbiBDZXJ0aWZpY2F0ZSBBdXRob3JpdHkxFjAUBgNVBAMMDUdyZWVuIFJvb3Qg
Q0EwHhcNMjAwNjIwMTQ1ODA2WhcNMzAwNjIwMTQ1ODA2WjBeMQswCQYDVQQGEwJO
TzERMA8GA1UECgwIR3JlZW4gQVMxJDAiBgNVBAsMG0dyZWVuIENlcnRpZmljYXRl
IEF1dGhvcml0eTEWMBQGA1UEAwwNR3JlZW4gUm9vdCBDQTCCAiIwDQYJKoZIhvcN
AQEBBQADggIPADCCAgoCggIBAL9SxchmkuO2Hzq28xWlsvIHRzjQtKdeEJaJHR6Z
0s6J/Rk+NpoRVwVUXbLTHz7rFLqtBtjH5f3xiATSQ4xDW+Lue/xVCKGSa2BbRyI8
97wjh9p12eS00yqZ/Ozzt2FQOVPUtRU8H5EXQIYSFjoQXcEUk0JZ8Nf81gvrmbIt
otR8cihIVlbG9pa6VuhvbZzUu3BEKyrWSS7QppjJt8xoJeKuQTrMHqCq2h8cFyel
E6kUaHDNz9fdNjMINh733IZHGv4zEH1ST1Lzmv+1ARNkJmXHuiUPXzV1rFHWlJGt
aqZ3IByIFpFbS2ZpuozSRYBNxZFduxuFl6s8OUH15+WTYLyKTD81n2bwo0dUmMGw
QweTTyhTvA4fE5XaHv3waiOdJtGYVWEsSy301rPYln69YSFbFTDtaXoTfZtyAfny
6JDxX9spu0mMJqNoFOGUxGwZ3eL40Nq7d1881NjUyWZI71jkHPkOda+pI7DFn7Vy
X8ewmN9keV34s4p6NDk+s0K4f0S15x1x0PmZgZWoziUJh5fMVLREQE2kMz2xch7+
6SV9EfvyQOFFr9QTwPCC9/T1vEaZRCn8JAo5P9YnBnwEtKs8s8w/H00oJtUOmWfN
anmHMBIUTkmOweRi1T84I+6cvjb0xFK5/5bvrjbLYAPRc80JAyHXXZS07IeDQy5c
MDAbAgMBAAGjYzBhMA4GA1UdDwEB/wQEAwIBBjAPBgNVHRMBAf8EBTADAQH/MB0G
A1UdDgQWBBQJGO2IZdm/FaTlFnEXXxAR2LpMOTAfBgNVHSMEGDAWgBQJGO2IZdm/
FaTlFnEXXxAR2LpMOTANBgkqhkiG9w0BAQsFAAOCAgEAVWsWskBmTx4J8+ej7nRT
4AymLAL3lDMxx2SCV22b27PmsEs0eyLk+JW2JzTyNNyAhE+55G/ZtTLlu5HHVuNQ
yfhWA+e50idm/gblGNZeivNGyBVh6DK6Z/u4hNgj22QIeO11XPVGtB9WgdG2m6cd
v5rZrmjw/HNC8saZMjoK0ePAeJZcEZMLBnKeqTQgMton+4wvDn0I5BuT9H+yPfIC
uruML6sBLMntd7RvxYLCAEUe0YELFXUJJA0HRA/gZLl/l5hsi3GLOkPWTTLMOUoV
tWeFK5LNvPsGbUD9nOlCEIzZPTrCRD07bczdPZx4+FyKTV2FiCxl5ezJE8wANKbN
cl6Z1Ii7TAeoAAQEovrQEkkY/+apHBq1bYnXZ1LXz/hRTVDncf4aqnWlrq1Ui1fL
lM9xuxQrvqIOFmtGjbGhf4EYKq9gkiO9Ym1UP6OtK0JPLU5CK3o/qmHABblOel4b
+4sQ6pwJE0QUfBxA6o9d42dGhUHBBR/9Odpm7LO5l4FMvifLl+8dtCRq4F30CR5i
ifzZnvmnZeywNvop1Tp+nj5hORhVQLnxMVC1eMT48PkNZBzRa/ENGOlCYvHcHHYa
YNkHPl5sfVA1nMAYeJ3crDXS0bzR2a1PMQk/ZTbdBGHscxEug4u7r93Yx84wwMDY
ozVbREizR22ZmG0ARXCHlqs=
-----END CERTIFICATE-----
