Certificate:
    Data:
        Version: 3 (0x2)
        Serial Number:
            02:8e:f9:22:34:30:5a:43:da:1a:3b:b2:84:c7:ad:fe:82:79:19:8d
        Signature Algorithm: sha256WithRSAEncryption
        Issuer: C=NO, O=Green AS, OU=Green Certificate Authority, CN=Green Root CA
        Validity
            Not Before: May 18 10:42:05 2020 GMT
            Not After : May 18 10:42:05 2030 GMT
        Subject: C=NO, O=Green AS, OU=Green Certificate Authority, CN=Green Root CA
        Subject Public Key Info:
            Public Key Algorithm: rsaEncryption
                RSA Public-Key: (4096 bit)
                Modulus:
                    00:d6:d0:a3:67:09:ac:29:a9:86:a0:6a:f5:5d:c2:
                    d4:d8:2f:31:65:d2:44:d0:9f:b2:9c:89:89:b8:b6:
                    34:ec:22:81:de:4c:2c:17:e2:f1:b0:e3:00:97:6e:
                    5c:b2:94:08:a4:f6:f7:a9:5e:ed:ec:aa:43:85:d0:
                    5b:84:a8:93:ae:bb:96:dc:44:d9:fc:12:4d:f8:19:
                    ad:e6:6b:47:29:4f:44:3a:32:d2:70:94:12:ee:74:
                    07:ac:21:1f:15:79:85:45:65:2e:74:f7:be:c0:e1:
                    16:7f:64:a2:e8:6a:cf:e7:88:82:93:e0:dc:e6:73:
                    18:57:ba:5f:9d:ac:80:66:83:37:8d:af:b5:93:22:
                    9f:2d:be:b8:64:92:55:0a:fb:7d:43:50:fc:d4:e5:
                    7c:af:a5:eb:22:d6:5e:17:83:69:c0:83:a4:63:b5:
                    69:9e:78:d7:25:e8:7d:6a:9d:44:c0:bd:ae:6b:be:
                    75:12:82:6a:d4:99:e1:b6:5e:dc:e4:1e:60:a7:29:
                    69:8d:16:33:35:c7:9d:51:55:28:22:11:b0:d4:9a:
                    68:cc:ea:05:54:2f:9c:18:74:6c:64:2a:9e:85:4a:
                    ff:32:1c:e1:a1:be:1a:d8:26:1e:2b:1f:96:b8:d4:
                    8b:71:66:06:de:2d:fc:71:0f:9d:8a:da:8f:49:6a:
                    fe:b6:35:a2:c5:e4:67:4c:42:8a:8f:48:40:81:6f:
                    e4:d7:e7:fd:62:d3:ed:b0:bc:9b:67:4d:07:9b:86:
                    19:b5:24:20:62:c4:0e:0e:dc:63:45:96:89:a5:b9:
                    d2:84:43:dd:58:98:22:9f:9c:0a:40:1a:6d:23:33:
                    da:b0:28:e8:1e:3f:c1:65:1a:a5:6d:ac:0d:de:d2:
                    3e:cb:c6:e6:d8:e0:0c:7b:27:e8:a4:51:88:bf:79:
                    9b:75:ef:10:79:74:38:10:c9:c4:6e:06:b0:a7:d5:
                    b6:80:16:cf:f2:25:7a:78:62:27:3b:c7:3d:53:5c:
                    97:b0:40:86:6c:09:07:3c:71:08:0f:61:8b:ad:3b:
                    a6:e2:2c:26:96:49:16:06:2f:44:f2:1c:25:28:71:
                    c2:0f:78:2e:eb:83:f4:84:3a:4f:f3:0b:c0:80:92:
                    1e:1c:3b:49:0e:c4:fc:2a:d9:d0:d6:ae:5d:05:8c:
                    74:95:74:bd:fb:bc:0c:df:b4:9c:46:f4:7f:b1:98:
                    33:f9:dd:1f:f1:48:8f:47:29:fb:b5:2d:5f:b1:f3:
                    f7:2e:c8:8c:fa:d3:86:4f:b9:0f:8e:22:ea:b1:d8:
                    5f:0d:a3:19:a8:86:78:b5:89:72:95:76:9f:9b:7d:
                    1f:37:46:c3:5d:35:21:4f:f5:4d:7a:a9:41:96:63:
                    ef:03:5d
                Exponent: 65537 (0x10001)
        X509v3 extensions:
            X509v3 Key Usage: critical
                Certificate Sign, CRL Sign
            X509v3 Basic Constraints: critical
                CA:TRUE
            X509v3 Subject Key Identifier: 
                A8:22:C7:34:83:71:DE:BF:31:EB:92:5D:1E:AD:47:83:48:C3:DE:65
            X509v3 Authority Key Identifier: 
                keyid:A8:22:C7:34:83:71:DE:BF:31:EB:92:5D:1E:AD:47:83:48:C3:DE:65

    Signature Algorithm: sha256WithRSAEncryption
         8c:d4:d1:8e:fc:15:4a:14:ad:76:27:b9:ab:9d:a8:eb:47:1c:
         06:4b:bc:e4:84:01:d6:7b:3f:85:1f:5c:82:37:d8:86:09:50:
         74:36:d6:f8:e4:d7:1f:d9:56:58:0d:77:f3:38:20:f7:f5:08:
         38:00:c8:e8:0c:33:43:53:e3:6d:ec:2a:e5:46:ec:db:1b:d0:
         03:70:06:52:58:c8:c6:60:0b:26:40:9d:91:67:77:10:92:72:
         bf:aa:c3:72:66:ca:79:ed:07:74:71:14:9b:0f:b9:08:f9:f2:
         57:af:36:ef:c2:d2:9f:5f:eb:fb:ce:d3:5a:2b:c0:5a:13:ec:
         4f:10:f9:98:c1:e2:0a:96:91:18:e2:38:db:63:84:5b:78:54:
         33:bf:b9:3c:45:f5:7c:02:6a:2a:d8:14:e5:da:88:52:0e:83:
         be:4a:ad:98:8c:e1:1c:e4:1e:a5:35:a5:ad:04:4e:dc:8f:f9:
         28:10:00:ec:91:e9:78:ad:79:86:f1:3a:d1:c7:89:da:57:bb:
         f4:59:8f:48:fe:bb:9b:b2:c3:a8:5e:1c:28:c3:6e:c9:71:e4:
         92:96:13:24:74:e5:f3:6a:5f:55:a0:43:c1:5e:de:b8:00:84:
         50:8e:27:3d:65:90:47:ba:ea:66:4f:e8:6f:f3:95:dd:ef:2b:
         f4:c1:60:7f:03:e3:f9:9d:ad:74:70:54:bc:fc:08:01:ec:68:
         aa:e0:e1:d3:e7:52:1d:05:4f:37:37:2e:c4:dd:e4:1f:da:a8:
         eb:92:d3:1c:28:69:4e:84:5c:73:d8:33:4a:6e:47:f9:d1:78:
         ec:f6:38:67:24:91:33:a4:93:a4:fd:cd:50:14:a7:4d:23:09:
         c5:e8:b6:9a:c5:f4:45:7a:5d:e4:6b:31:5e:d0:6a:cb:10:bd:
         5b:cb:cc:d6:80:0b:d9:fb:6e:00:a5:a5:e6:7d:0f:b2:35:97:
         43:45:11:4f:77:d2:53:03:8d:44:ed:b8:f4:ed:a7:2a:7a:7c:
         7d:f5:b0:ea:b6:5f:4c:f0:b3:0c:0f:8f:cf:08:ff:cd:ff:46:
         c1:79:2f:d5:8a:c8:c2:cc:30:1d:f2:6f:f8:1a:5a:18:22:dd:
         13:a5:3a:61:7c:c2:d8:f8:1d:c9:46:f2:e2:34:e7:b4:02:f7:
         9e:02:5a:f8:c0:16:ea:8f:73:a0:9c:7c:41:84:4e:9e:43:d7:
         9c:c5:b4:87:e2:7f:a7:d1:a9:f3:20:7b:a5:a6:45:25:08:be:
         11:4c:ec:99:24:e3:6d:ff:3e:df:80:72:ba:a0:ec:21:8e:4a:
         5b:08:10:28:84:eb:51:ef:16:1e:c4:b8:09:41:ad:f5:1b:cb:
         4e:d7:24:be:05:60:d1:d6
-----BEGIN CERTIFICATE-----
MIIFrTCCA5WgAwIBAgIUAo75IjQwWkPaGjuyhMet/oJ5GY0wDQYJKoZIhvcNAQEL
BQAwXjELMAkGA1UEBhMCTk8xETAPBgNVBAoMCEdyZWVuIEFTMSQwIgYDVQQLDBtH
cmVlbiBDZXJ0aWZpY2F0ZSBBdXRob3JpdHkxFjAUBgNVBAMMDUdyZWVuIFJvb3Qg
Q0EwHhcNMjAwNTE4MTA0MjA1WhcNMzAwNTE4MTA0MjA1WjBeMQswCQYDVQQGEwJO
TzERMA8GA1UECgwIR3JlZW4gQVMxJDAiBgNVBAsMG0dyZWVuIENlcnRpZmljYXRl
IEF1dGhvcml0eTEWMBQGA1UEAwwNR3JlZW4gUm9vdCBDQTCCAiIwDQYJKoZIhvcN
AQEBBQADggIPADCCAgoCggIBANbQo2cJrCmphqBq9V3C1NgvMWXSRNCfspyJibi2
NOwigd5MLBfi8bDjAJduXLKUCKT296le7eyqQ4XQW4Sok667ltxE2fwSTfgZreZr
RylPRDoy0nCUEu50B6whHxV5hUVlLnT3vsDhFn9kouhqz+eIgpPg3OZzGFe6X52s
gGaDN42vtZMiny2+uGSSVQr7fUNQ/NTlfK+l6yLWXheDacCDpGO1aZ541yXofWqd
RMC9rmu+dRKCatSZ4bZe3OQeYKcpaY0WMzXHnVFVKCIRsNSaaMzqBVQvnBh0bGQq
noVK/zIc4aG+GtgmHisflrjUi3FmBt4t/HEPnYraj0lq/rY1osXkZ0xCio9IQIFv
5Nfn/WLT7bC8m2dNB5uGGbUkIGLEDg7cY0WWiaW50oRD3ViYIp+cCkAabSMz2rAo
6B4/wWUapW2sDd7SPsvG5tjgDHsn6KRRiL95m3XvEHl0OBDJxG4GsKfVtoAWz/Il
enhiJzvHPVNcl7BAhmwJBzxxCA9hi607puIsJpZJFgYvRPIcJShxwg94LuuD9IQ6
T/MLwICSHhw7SQ7E/CrZ0NauXQWMdJV0vfu8DN+0nEb0f7GYM/ndH/FIj0cp+7Ut
X7Hz9y7IjPrThk+5D44i6rHYXw2jGaiGeLWJcpV2n5t9HzdGw101IU/1TXqpQZZj
7wNdAgMBAAGjYzBhMA4GA1UdDwEB/wQEAwIBBjAPBgNVHRMBAf8EBTADAQH/MB0G
A1UdDgQWBBSoIsc0g3HevzHrkl0erUeDSMPeZTAfBgNVHSMEGDAWgBSoIsc0g3He
vzHrkl0erUeDSMPeZTANBgkqhkiG9w0BAQsFAAOCAgEAjNTRjvwVShStdie5q52o
60ccBku85IQB1ns/hR9cgjfYhglQdDbW+OTXH9lWWA138zgg9/UIOADI6AwzQ1Pj
bewq5Ubs2xvQA3AGUljIxmALJkCdkWd3EJJyv6rDcmbKee0HdHEUmw+5CPnyV682
78LSn1/r+87TWivAWhPsTxD5mMHiCpaRGOI422OEW3hUM7+5PEX1fAJqKtgU5dqI
Ug6DvkqtmIzhHOQepTWlrQRO3I/5KBAA7JHpeK15hvE60ceJ2le79FmPSP67m7LD
qF4cKMNuyXHkkpYTJHTl82pfVaBDwV7euACEUI4nPWWQR7rqZk/ob/OV3e8r9MFg
fwPj+Z2tdHBUvPwIAexoquDh0+dSHQVPNzcuxN3kH9qo65LTHChpToRcc9gzSm5H
+dF47PY4ZySRM6STpP3NUBSnTSMJxei2msX0RXpd5GsxXtBqyxC9W8vM1oAL2ftu
AKWl5n0PsjWXQ0URT3fSUwONRO249O2nKnp8ffWw6rZfTPCzDA+Pzwj/zf9GwXkv
1YrIwswwHfJv+BpaGCLdE6U6YXzC2PgdyUby4jTntAL3ngJa+MAW6o9zoJx8QYRO
nkPXnMW0h+J/p9Gp8yB7paZFJQi+EUzsmSTjbf8+34ByuqDsIY5KWwgQKITrUe8W
HsS4CUGt9RvLTtckvgVg0dY=
-----END CERTIFICATE-----
