Certificate:
    Data:
        Version: 3 (0x2)
        Serial Number:
            05:42:4f:0c:32:25:f9:62:58:df:f6:d9:8f:4e:3a:2a:d8:02:f8:02
        Signature Algorithm: sha256WithRSAEncryption
        Issuer: C=NO, O=Green AS, OU=Green Certificate Authority, CN=Green Root CA
        Validity
            Not Before: May 18 10:42:06 2020 GMT
            Not After : May 18 10:42:06 2030 GMT
        Subject: C=NO, O=Green AS, OU=Green Certificate Authority, CN=Green TLS CA
        Subject Public Key Info:
            Public Key Algorithm: rsaEncryption
                RSA Public-Key: (4096 bit)
                Modulus:
                    00:bc:21:c7:1f:c4:10:e5:9b:76:13:9a:be:1f:94:
                    4c:98:20:a7:97:55:0b:a6:e8:15:c4:5e:10:00:9d:
                    46:fb:66:f8:a6:fd:f1:30:72:ec:70:d0:d9:f7:38:
                    05:27:a7:90:8b:ea:9b:f9:4f:e2:9d:1d:ac:1f:2a:
                    72:7c:7e:74:72:42:d4:ec:ad:91:5d:2b:41:0f:c7:
                    c1:b2:b7:2d:25:15:b2:5c:96:e2:b8:47:68:fa:c0:
                    1d:00:89:e5:2e:85:69:5c:ea:ae:93:7d:a4:54:50:
                    d1:ad:ae:9f:c0:9d:f6:54:98:78:cf:c5:1e:0e:00:
                    57:fe:68:af:76:5c:78:18:bd:70:63:41:54:92:70:
                    a0:c2:df:96:e5:1c:9b:de:61:72:cf:78:6d:11:30:
                    5d:a3:08:0c:b9:e7:13:82:fd:6f:50:c4:fa:85:b6:
                    c2:75:1f:de:68:a7:6d:db:2f:1a:98:3f:61:d1:60:
                    bd:d2:0b:8e:e4:03:53:3e:15:b3:ba:8f:8e:55:c8:
                    ca:36:f7:40:8c:22:1d:d8:c9:92:94:3c:a9:eb:d9:
                    8a:49:62:b6:06:97:01:2f:a9:4d:99:98:db:29:d6:
                    2c:c5:4e:24:19:d2:58:4c:c9:f0:66:e0:04:0c:74:
                    23:9f:30:bf:0d:84:d2:89:e4:26:5d:14:19:3c:5b:
                    b5:b4:b0:60:cd:a0:c4:c8:3b:fe:f1:af:36:1f:a3:
                    11:4e:da:71:02:c4:3a:14:5a:db:62:56:d3:27:b9:
                    1c:04:2c:0f:ae:99:a2:38:2c:bc:a5:f3:59:23:0a:
                    8b:d1:72:65:0b:fc:83:06:0c:9f:6e:8e:06:78:63:
                    01:4d:45:f3:df:dc:a2:c6:db:a8:97:36:fd:a7:85:
                    5c:e6:fd:f5:e1:5e:cb:0b:8b:d7:d1:a6:78:0f:4a:
                    8a:d5:59:de:fc:79:bb:c9:98:6f:ff:78:e9:1f:5c:
                    79:01:7a:78:fb:c9:56:7f:a7:11:2e:5c:f4:26:6b:
                    88:91:35:f7:13:c2:9e:c3:e9:aa:c2:74:60:ac:d5:
                    6c:b1:aa:4f:07:6d:f7:d2:a0:67:75:ab:d1:b5:a3:
                    e4:45:47:75:4e:a2:4d:52:f2:8e:ee:37:c3:bd:86:
                    84:a7:1f:7b:26:dd:92:05:a9:70:43:c9:e7:55:66:
                    23:5a:76:56:38:a1:d1:47:d4:e7:b0:c6:63:bb:c2:
                    2b:d8:0e:95:14:ad:65:a7:33:e0:88:70:80:c1:f3:
                    08:b7:a8:d6:7c:1f:7d:c6:53:ca:df:b7:58:2e:b0:
                    1a:0d:91:1d:fc:c8:e0:d5:ac:41:2a:1d:12:b1:70:
                    87:0a:30:01:7c:c9:d6:98:22:24:8c:3e:b3:75:67:
                    51:87:b7
                Exponent: 65537 (0x10001)
        X509v3 extensions:
            X509v3 Key Usage: critical
                Certificate Sign, CRL Sign
            X509v3 Basic Constraints: critical
                CA:TRUE, pathlen:0
            X509v3 Subject Key Identifier: 
                49:4A:58:75:16:43:24:27:EA:CD:38:D4:BF:E8:6F:E8:7D:B2:73:01
            X509v3 Authority Key Identifier: 
                keyid:A8:22:C7:34:83:71:DE:BF:31:EB:92:5D:1E:AD:47:83:48:C3:DE:65

            Authority Information Access: 
                CA Issuers - URI:http://green.no/ca/root-ca.cer

            X509v3 CRL Distribution Points: 

                Full Name:
                  URI:http://green.no/ca/root-ca.crl

    Signature Algorithm: sha256WithRSAEncryption
         b1:b6:1a:80:df:62:4d:51:23:1c:14:92:39:62:27:72:b1:11:
         f2:96:86:dc:84:42:2b:af:5c:09:c1:98:41:4f:f3:a2:a3:b1:
         28:95:70:c5:66:4d:0f:cf:d2:0f:12:56:b9:23:ad:5f:5a:27:
         5f:08:a3:a2:21:1a:57:ab:dc:ba:9f:73:19:c0:d1:a6:2d:5e:
         3e:65:63:8d:de:f5:41:bd:53:d5:62:ba:d4:bf:20:9e:32:cc:
         8d:08:8e:f3:21:f8:7d:42:ac:8b:89:e3:13:a3:dd:4c:ed:3a:
         d2:b8:29:e1:f8:aa:09:f9:8f:cf:f1:b0:81:68:cf:88:d2:7b:
         bd:93:10:ac:11:a9:c4:49:02:21:79:17:b4:eb:11:bc:c5:42:
         79:4f:e1:b0:98:ea:e4:6a:63:62:c4:e4:73:71:56:51:2f:19:
         40:7f:a3:c4:37:bf:5d:d3:9b:6c:1d:b8:d2:9d:8f:18:b6:17:
         b0:13:e3:83:b3:eb:27:88:61:77:3a:12:59:ce:3a:ae:b8:d8:
         f0:0a:6e:37:0e:e9:7f:f0:0f:8c:4f:ae:53:c1:85:5e:1b:6b:
         de:3a:23:2b:0e:9b:8a:2b:1f:16:1d:59:6a:27:33:01:3b:14:
         01:d6:3c:24:bc:e1:07:9a:56:29:67:b2:1b:f8:f9:8a:4c:3a:
         6e:f7:b8:10:17:ed:28:7b:66:85:f7:78:5c:c6:42:e0:69:70:
         f7:da:eb:1a:e5:3d:6c:3b:87:da:86:1a:97:ba:8a:a1:3e:89:
         59:1a:a0:3e:a8:a0:97:7e:a8:68:05:0d:be:fb:2f:5f:6a:99:
         7c:d7:be:41:53:0b:16:ad:24:b4:9e:59:4d:09:07:97:eb:d9:
         55:2e:ca:69:1f:d9:d0:ae:17:04:e9:5b:5b:49:53:c0:e8:4c:
         58:1b:09:65:b0:9e:ac:8f:19:1b:47:94:8d:be:7c:21:2a:b8:
         63:50:76:89:02:9d:d4:19:19:96:a5:c7:9f:20:0f:6c:97:26:
         4b:08:73:6b:b3:f4:e4:3b:ec:59:b9:b5:2c:f2:63:e3:3a:36:
         ac:cd:56:2a:af:8d:3d:0b:83:a2:1b:e2:2b:7e:de:21:b8:8d:
         ad:e9:71:29:be:d4:fd:c4:ce:6e:bf:de:a5:30:48:f0:bc:59:
         b8:71:7a:ae:96:2c:9a:7c:82:48:b6:56:ea:c1:33:65:7c:f5:
         e2:b6:af:00:33:de:67:3f:2d:a4:5b:c5:1a:78:05:5b:d2:ad:
         17:ca:b9:2e:0e:16:45:d7:52:9d:01:cd:52:5d:e1:e8:7a:e3:
         a5:57:21:16:22:17:63:a6:69:c1:c9:db:41:f7:45:7d:bd:91:
         c7:08:35:10:5c:10:7b:06
-----BEGIN CERTIFICATE-----
MIIGHjCCBAagAwIBAgIUBUJPDDIl+WJY3/bZj046KtgC+AIwDQYJKoZIhvcNAQEL
BQAwXjELMAkGA1UEBhMCTk8xETAPBgNVBAoMCEdyZWVuIEFTMSQwIgYDVQQLDBtH
cmVlbiBDZXJ0aWZpY2F0ZSBBdXRob3JpdHkxFjAUBgNVBAMMDUdyZWVuIFJvb3Qg
Q0EwHhcNMjAwNTE4MTA0MjA2WhcNMzAwNTE4MTA0MjA2WjBdMQswCQYDVQQGEwJO
TzERMA8GA1UECgwIR3JlZW4gQVMxJDAiBgNVBAsMG0dyZWVuIENlcnRpZmljYXRl
IEF1dGhvcml0eTEVMBMGA1UEAwwMR3JlZW4gVExTIENBMIICIjANBgkqhkiG9w0B
AQEFAAOCAg8AMIICCgKCAgEAvCHHH8QQ5Zt2E5q+H5RMmCCnl1ULpugVxF4QAJ1G
+2b4pv3xMHLscNDZ9zgFJ6eQi+qb+U/inR2sHypyfH50ckLU7K2RXStBD8fBsrct
JRWyXJbiuEdo+sAdAInlLoVpXOquk32kVFDRra6fwJ32VJh4z8UeDgBX/mivdlx4
GL1wY0FUknCgwt+W5Ryb3mFyz3htETBdowgMuecTgv1vUMT6hbbCdR/eaKdt2y8a
mD9h0WC90guO5ANTPhWzuo+OVcjKNvdAjCId2MmSlDyp69mKSWK2BpcBL6lNmZjb
KdYsxU4kGdJYTMnwZuAEDHQjnzC/DYTSieQmXRQZPFu1tLBgzaDEyDv+8a82H6MR
TtpxAsQ6FFrbYlbTJ7kcBCwPrpmiOCy8pfNZIwqL0XJlC/yDBgyfbo4GeGMBTUXz
39yixtuolzb9p4Vc5v314V7LC4vX0aZ4D0qK1Vne/Hm7yZhv/3jpH1x5AXp4+8lW
f6cRLlz0JmuIkTX3E8Kew+mqwnRgrNVssapPB2330qBndavRtaPkRUd1TqJNUvKO
7jfDvYaEpx97Jt2SBalwQ8nnVWYjWnZWOKHRR9TnsMZju8Ir2A6VFK1lpzPgiHCA
wfMIt6jWfB99xlPK37dYLrAaDZEd/Mjg1axBKh0SsXCHCjABfMnWmCIkjD6zdWdR
h7cCAwEAAaOB1DCB0TAOBgNVHQ8BAf8EBAMCAQYwEgYDVR0TAQH/BAgwBgEB/wIB
ADAdBgNVHQ4EFgQUSUpYdRZDJCfqzTjUv+hv6H2ycwEwHwYDVR0jBBgwFoAUqCLH
NINx3r8x65JdHq1Hg0jD3mUwOgYIKwYBBQUHAQEELjAsMCoGCCsGAQUFBzAChh5o
dHRwOi8vZ3JlZW4ubm8vY2Evcm9vdC1jYS5jZXIwLwYDVR0fBCgwJjAkoCKgIIYe
aHR0cDovL2dyZWVuLm5vL2NhL3Jvb3QtY2EuY3JsMA0GCSqGSIb3DQEBCwUAA4IC
AQCxthqA32JNUSMcFJI5YidysRHylobchEIrr1wJwZhBT/Oio7EolXDFZk0Pz9IP
Ela5I61fWidfCKOiIRpXq9y6n3MZwNGmLV4+ZWON3vVBvVPVYrrUvyCeMsyNCI7z
Ifh9QqyLieMTo91M7TrSuCnh+KoJ+Y/P8bCBaM+I0nu9kxCsEanESQIheRe06xG8
xUJ5T+GwmOrkamNixORzcVZRLxlAf6PEN79d05tsHbjSnY8YthewE+ODs+sniGF3
OhJZzjquuNjwCm43Dul/8A+MT65TwYVeG2veOiMrDpuKKx8WHVlqJzMBOxQB1jwk
vOEHmlYpZ7Ib+PmKTDpu97gQF+0oe2aF93hcxkLgaXD32usa5T1sO4fahhqXuoqh
PolZGqA+qKCXfqhoBQ2++y9fapl8175BUwsWrSS0nllNCQeX69lVLsppH9nQrhcE
6VtbSVPA6ExYGwllsJ6sjxkbR5SNvnwhKrhjUHaJAp3UGRmWpcefIA9slyZLCHNr
s/TkO+xZubUs8mPjOjaszVYqr409C4OiG+Irft4huI2t6XEpvtT9xM5uv96lMEjw
vFm4cXquliyafIJItlbqwTNlfPXitq8AM95nPy2kW8UaeAVb0q0XyrkuDhZF11Kd
Ac1SXeHoeuOlVyEWIhdjpmnBydtB90V9vZHHCDUQXBB7Bg==
-----END CERTIFICATE-----
