Certificate:
    Data:
        Version: 3 (0x2)
        Serial Number:
            2b:a2:a4:f6:a2:0d:36:27:3e:69:db:c0:51:ff:1a:fd:3b:0d:a8:eb
        Signature Algorithm: sha256WithRSAEncryption
        Issuer: C=NO, O=Green AS, OU=Green Certificate Authority, CN=Green Root CA
        Validity
            Not Before: May 20 18:14:50 2020 GMT
            Not After : May 20 18:14:50 2030 GMT
        Subject: C=NO, O=Green AS, OU=Green Certificate Authority, CN=Green TLS CA
        Subject Public Key Info:
            Public Key Algorithm: rsaEncryption
                RSA Public-Key: (4096 bit)
                Modulus:
                    00:b4:02:04:2c:4f:df:af:d0:84:fe:e8:6c:3a:e0:
                    30:68:44:d6:10:ff:a6:31:c4:78:9b:62:c0:b0:d5:
                    7d:2f:f8:a3:87:df:ef:38:91:aa:8d:55:41:a8:e2:
                    04:d1:2d:07:52:c9:52:75:71:73:83:30:67:39:f5:
                    36:29:bc:dc:b5:df:4d:68:67:e3:bb:42:9a:20:28:
                    35:e8:8d:a6:c6:f1:d2:d8:de:84:b0:f5:ee:f1:5b:
                    80:3f:a6:ee:d6:b7:2e:82:22:b0:95:95:60:35:3d:
                    c4:29:c6:4a:ad:fb:92:50:78:c2:87:8a:19:79:d4:
                    8c:66:84:be:9e:09:11:14:1b:06:37:48:84:2a:ba:
                    a4:c1:ca:4c:b9:21:33:1a:62:ef:0f:27:6f:5e:82:
                    94:a6:eb:54:0d:f2:cb:69:49:ef:2e:0a:73:b6:31:
                    67:3d:ce:4f:e6:0e:c2:ff:86:e8:6f:b6:3c:f8:9b:
                    6d:58:1d:fe:fc:aa:fb:d6:95:be:ab:d9:76:2c:20:
                    a7:62:0b:08:bd:29:f1:eb:35:ae:de:57:bb:9e:fb:
                    c4:b2:38:97:0b:89:4a:e4:50:b2:8a:89:50:b1:7e:
                    d1:cf:dd:b4:ae:e1:6f:d8:37:ec:e7:3e:80:7f:c9:
                    b5:01:fa:0c:37:d5:3f:cf:be:4e:d3:e7:c5:66:7e:
                    e3:b2:92:b8:e5:33:06:b9:a3:f1:96:b0:f6:52:d1:
                    b7:1a:bb:a8:63:54:b0:8c:61:8c:70:f6:fa:87:d2:
                    c0:55:81:c1:c4:b7:bd:a5:5e:1b:75:90:44:57:a9:
                    fc:a4:dd:0f:1a:f8:4c:bf:aa:1b:b6:60:2b:16:a9:
                    54:a1:a2:61:06:51:18:9f:b8:a3:8a:7d:75:87:76:
                    ef:d3:2f:62:7b:5d:94:67:34:4b:4c:e0:81:b0:df:
                    99:49:4e:44:ae:a6:e7:b9:31:fa:5c:a9:95:a6:9e:
                    b7:32:12:19:0b:39:f7:e1:9a:92:13:28:eb:54:81:
                    bf:2b:65:f3:4a:3a:19:52:95:09:0c:f5:7c:0f:53:
                    29:4a:38:59:06:d9:82:e1:52:a5:c8:0c:ea:41:75:
                    91:05:49:dc:45:8e:20:cd:04:e0:f4:0d:44:ab:bd:
                    bf:64:0c:9b:22:82:ee:f1:cc:f8:70:11:d2:59:e6:
                    cf:c3:61:ad:d6:b0:a3:eb:8c:6b:fd:98:60:c1:ec:
                    00:28:99:35:b8:93:d7:e7:e5:df:6d:79:47:12:67:
                    50:1d:2d:39:01:9a:f1:31:0a:76:1d:02:27:8c:b5:
                    75:73:a8:c7:6f:bf:81:58:12:4a:79:ac:64:10:2c:
                    73:aa:77:d1:63:f5:2d:5f:9d:f6:4f:0a:0d:b6:1d:
                    d0:84:bf
                Exponent: 65537 (0x10001)
        X509v3 extensions:
            X509v3 Key Usage: critical
                Certificate Sign, CRL Sign
            X509v3 Basic Constraints: critical
                CA:TRUE, pathlen:0
            X509v3 Subject Key Identifier: 
                EB:BF:1B:31:64:45:6D:05:E0:DB:15:6C:AE:FC:7B:F8:30:20:3F:33
            X509v3 Authority Key Identifier: 
                keyid:E5:7F:BE:AA:F9:94:DE:25:A9:23:CB:14:82:9E:B6:38:2B:43:20:DE

            Authority Information Access: 
                CA Issuers - URI:http://green.no/ca/root-ca.cer

            X509v3 CRL Distribution Points: 

                Full Name:
                  URI:http://green.no/ca/root-ca.crl

    Signature Algorithm: sha256WithRSAEncryption
         5b:bb:5a:d5:a1:f4:fe:a7:e3:ac:88:5c:97:d8:18:7d:3d:bc:
         84:e1:ae:b6:4c:3f:c0:37:57:f1:35:02:16:58:1b:fe:e1:8d:
         9a:ac:75:8d:61:a8:2b:86:a7:48:a4:41:a3:e5:b1:2d:c0:aa:
         8a:36:b8:65:fc:3c:5b:57:c0:60:a1:9d:82:38:93:52:8f:f2:
         df:36:4c:d9:89:4f:61:72:b2:27:50:7b:fe:5a:d7:83:be:54:
         24:37:9c:64:35:58:c1:69:f6:24:18:eb:ee:da:e4:92:77:36:
         3b:19:28:25:4a:7a:f1:4d:dd:1d:2e:72:01:2a:69:37:38:7b:
         cd:f8:ea:69:ae:a5:9e:c8:37:7e:13:d3:cd:68:93:d1:ab:df:
         4c:f4:3e:ad:0f:6a:78:79:67:7c:73:f9:67:27:7b:09:08:e0:
         22:63:8b:d1:8b:f1:e6:86:ba:29:93:ac:4a:2a:51:04:62:ea:
         80:68:3b:ca:0e:85:d3:9f:59:99:cd:06:52:13:a6:b6:ff:16:
         95:55:12:c9:cd:09:7c:1c:9d:6c:5a:ed:b4:77:5f:29:9f:32:
         f4:4a:8c:ed:f9:20:50:f1:dd:45:a2:5b:70:6a:3f:83:dd:0d:
         c7:f2:b9:23:a4:15:8a:7c:db:1c:4e:d5:f0:e0:74:67:8e:ab:
         b7:04:6e:04:ba:d0:9d:83:da:03:56:31:db:46:de:b4:92:0d:
         ac:23:67:82:98:53:17:20:94:2b:f4:73:86:22:2e:3d:61:10:
         b4:e8:08:c5:3f:a9:bf:93:b9:d7:cc:6f:a7:2f:2a:d1:c6:48:
         b5:fa:94:4e:cb:f7:2b:82:b9:d3:21:e1:b7:05:41:c6:34:3e:
         8b:60:3f:b1:ac:88:16:9b:55:73:5d:60:be:2f:40:e9:0f:a2:
         66:85:a4:b2:03:f9:c9:e1:9d:77:62:d4:a4:3f:ac:d8:ba:bf:
         c7:9c:04:4a:4b:84:9a:9b:5b:fe:88:a0:28:3e:ce:4e:8d:77:
         97:6e:46:8d:40:03:0d:6d:07:55:22:14:60:39:3d:7d:20:48:
         68:38:6c:46:15:4e:bd:39:37:98:9e:ae:70:74:09:5d:a4:f6:
         64:45:1e:04:d0:39:68:f0:9b:12:f7:03:ac:ef:4b:4e:28:a8:
         cc:21:4b:8a:68:68:09:34:0d:c0:5b:6a:88:5f:3f:b2:85:7e:
         47:fc:37:ec:9a:bd:bb:de:77:ed:dc:ee:11:01:77:94:b6:d7:
         29:ee:57:14:3e:b3:46:ab:cd:69:41:e7:3e:db:5b:26:ab:80:
         b0:ff:61:fa:cc:e7:0a:12:ad:fd:e7:8f:50:27:a1:83:a2:84:
         c4:18:77:94:51:d4:b2:77
-----BEGIN CERTIFICATE-----
MIIGHjCCBAagAwIBAgIUK6Kk9qINNic+advAUf8a/TsNqOswDQYJKoZIhvcNAQEL
BQAwXjELMAkGA1UEBhMCTk8xETAPBgNVBAoMCEdyZWVuIEFTMSQwIgYDVQQLDBtH
cmVlbiBDZXJ0aWZpY2F0ZSBBdXRob3JpdHkxFjAUBgNVBAMMDUdyZWVuIFJvb3Qg
Q0EwHhcNMjAwNTIwMTgxNDUwWhcNMzAwNTIwMTgxNDUwWjBdMQswCQYDVQQGEwJO
TzERMA8GA1UECgwIR3JlZW4gQVMxJDAiBgNVBAsMG0dyZWVuIENlcnRpZmljYXRl
IEF1dGhvcml0eTEVMBMGA1UEAwwMR3JlZW4gVExTIENBMIICIjANBgkqhkiG9w0B
AQEFAAOCAg8AMIICCgKCAgEAtAIELE/fr9CE/uhsOuAwaETWEP+mMcR4m2LAsNV9
L/ijh9/vOJGqjVVBqOIE0S0HUslSdXFzgzBnOfU2Kbzctd9NaGfju0KaICg16I2m
xvHS2N6EsPXu8VuAP6bu1rcugiKwlZVgNT3EKcZKrfuSUHjCh4oZedSMZoS+ngkR
FBsGN0iEKrqkwcpMuSEzGmLvDydvXoKUputUDfLLaUnvLgpztjFnPc5P5g7C/4bo
b7Y8+JttWB3+/Kr71pW+q9l2LCCnYgsIvSnx6zWu3le7nvvEsjiXC4lK5FCyiolQ
sX7Rz920ruFv2Dfs5z6Af8m1AfoMN9U/z75O0+fFZn7jspK45TMGuaPxlrD2UtG3
GruoY1SwjGGMcPb6h9LAVYHBxLe9pV4bdZBEV6n8pN0PGvhMv6obtmArFqlUoaJh
BlEYn7ijin11h3bv0y9ie12UZzRLTOCBsN+ZSU5ErqbnuTH6XKmVpp63MhIZCzn3
4ZqSEyjrVIG/K2XzSjoZUpUJDPV8D1MpSjhZBtmC4VKlyAzqQXWRBUncRY4gzQTg
9A1Eq72/ZAybIoLu8cz4cBHSWebPw2Gt1rCj64xr/ZhgwewAKJk1uJPX5+XfbXlH
EmdQHS05AZrxMQp2HQInjLV1c6jHb7+BWBJKeaxkECxzqnfRY/UtX532TwoNth3Q
hL8CAwEAAaOB1DCB0TAOBgNVHQ8BAf8EBAMCAQYwEgYDVR0TAQH/BAgwBgEB/wIB
ADAdBgNVHQ4EFgQU678bMWRFbQXg2xVsrvx7+DAgPzMwHwYDVR0jBBgwFoAU5X++
qvmU3iWpI8sUgp62OCtDIN4wOgYIKwYBBQUHAQEELjAsMCoGCCsGAQUFBzAChh5o
dHRwOi8vZ3JlZW4ubm8vY2Evcm9vdC1jYS5jZXIwLwYDVR0fBCgwJjAkoCKgIIYe
aHR0cDovL2dyZWVuLm5vL2NhL3Jvb3QtY2EuY3JsMA0GCSqGSIb3DQEBCwUAA4IC
AQBbu1rVofT+p+OsiFyX2Bh9PbyE4a62TD/AN1fxNQIWWBv+4Y2arHWNYagrhqdI
pEGj5bEtwKqKNrhl/DxbV8BgoZ2COJNSj/LfNkzZiU9hcrInUHv+WteDvlQkN5xk
NVjBafYkGOvu2uSSdzY7GSglSnrxTd0dLnIBKmk3OHvN+OpprqWeyDd+E9PNaJPR
q99M9D6tD2p4eWd8c/lnJ3sJCOAiY4vRi/Hmhropk6xKKlEEYuqAaDvKDoXTn1mZ
zQZSE6a2/xaVVRLJzQl8HJ1sWu20d18pnzL0Sozt+SBQ8d1Foltwaj+D3Q3H8rkj
pBWKfNscTtXw4HRnjqu3BG4EutCdg9oDVjHbRt60kg2sI2eCmFMXIJQr9HOGIi49
YRC06AjFP6m/k7nXzG+nLyrRxki1+pROy/crgrnTIeG3BUHGND6LYD+xrIgWm1Vz
XWC+L0DpD6JmhaSyA/nJ4Z13YtSkP6zYur/HnARKS4Sam1v+iKAoPs5OjXeXbkaN
QAMNbQdVIhRgOT19IEhoOGxGFU69OTeYnq5wdAldpPZkRR4E0Dlo8JsS9wOs70tO
KKjMIUuKaGgJNA3AW2qIXz+yhX5H/Dfsmr273nft3O4RAXeUttcp7lcUPrNGq81p
Qec+21smq4Cw/2H6zOcKEq39549QJ6GDooTEGHeUUdSydw==
-----END CERTIFICATE-----
Certificate:
    Data:
        Version: 3 (0x2)
        Serial Number:
            63:49:54:92:95:ab:09:94:6b:9c:c8:f3:38:ec:77:f7:1f:d4:de:39
        Signature Algorithm: sha256WithRSAEncryption
        Issuer: C=NO, O=Green AS, OU=Green Certificate Authority, CN=Green Root CA
        Validity
            Not Before: May 20 18:14:49 2020 GMT
            Not After : May 20 18:14:49 2030 GMT
        Subject: C=NO, O=Green AS, OU=Green Certificate Authority, CN=Green Root CA
        Subject Public Key Info:
            Public Key Algorithm: rsaEncryption
                RSA Public-Key: (4096 bit)
                Modulus:
                    00:9d:7a:ab:ed:58:3f:58:db:c1:e2:da:22:10:63:
                    7e:1a:60:56:75:b5:9a:b2:95:53:f7:45:74:73:a7:
                    fd:01:88:fc:ac:94:34:26:60:2f:42:38:ab:96:37:
                    a9:14:4f:54:cc:26:58:33:83:16:a8:ca:b5:01:95:
                    c9:65:81:1e:b4:b1:ba:6a:82:b4:ff:15:21:da:c1:
                    06:2e:02:2e:02:a3:cb:3f:b5:b9:ce:06:c1:c0:53:
                    65:c2:23:51:45:0e:06:e5:76:d0:2c:95:60:c9:13:
                    77:5b:10:2c:43:41:81:40:1f:c5:34:de:a6:c4:e6:
                    b4:25:fa:0c:48:1d:82:6e:1a:fd:45:d3:6c:75:a4:
                    36:91:3b:91:bf:95:66:77:d8:17:82:47:a3:9e:ee:
                    66:42:97:b0:76:e1:77:6e:38:f8:4a:92:4f:18:ee:
                    ae:a6:cf:91:37:00:24:10:43:80:8c:9d:1f:6a:fc:
                    f3:ea:a6:a9:4f:c4:ae:77:46:61:4d:f9:7b:01:47:
                    7c:92:ad:ae:db:cf:65:89:d8:ec:d1:01:4c:f8:aa:
                    45:d5:22:b0:23:cc:eb:6a:85:e9:ec:9a:77:d4:15:
                    e0:88:96:6f:5f:fe:e2:c1:54:bf:9f:3c:80:bf:5f:
                    d6:ff:67:be:d5:db:82:00:9a:0d:13:3f:08:80:4e:
                    68:a8:ec:6d:37:88:e1:ce:e0:b2:bc:1a:9d:ba:e9:
                    dd:e2:f7:52:7a:70:3a:31:e6:f8:02:b6:20:87:1d:
                    b2:a1:f1:83:9b:d0:8c:d4:01:da:24:47:3a:cb:46:
                    a2:99:b0:2e:7c:86:20:d8:87:d3:50:81:f3:5b:09:
                    e5:43:e0:f2:2d:40:96:c1:9e:dc:b3:96:66:c2:1c:
                    d9:2b:c6:27:ae:8b:8a:c3:57:df:99:4a:3f:8a:a8:
                    14:40:b1:f4:f1:3b:01:d9:4c:ad:00:0e:39:5f:2c:
                    56:2a:7a:13:54:b2:a3:69:0a:74:ab:38:20:77:0e:
                    9f:5b:46:11:a1:89:49:1d:2e:d2:b5:26:31:ea:fc:
                    7d:5d:07:5a:81:88:41:33:bb:07:d6:00:51:d0:ba:
                    95:9c:8f:db:67:bb:13:b6:1b:a9:87:da:d2:13:01:
                    be:4a:6e:6c:cd:e0:e5:26:41:76:1f:9b:58:84:5d:
                    b9:fe:59:8f:b4:9c:d0:4c:32:6c:11:7b:10:0d:73:
                    23:46:16:e2:e1:6b:a1:ca:99:c0:3c:1d:d1:87:b2:
                    b6:86:06:4d:92:2b:e7:24:cc:c0:a0:dd:27:d4:b0:
                    3f:55:1c:ec:85:9d:0c:8b:b3:82:6d:b4:f3:45:31:
                    8d:9d:91:5d:4f:a4:67:1f:c4:8e:03:0d:dc:3b:1c:
                    69:26:0f
                Exponent: 65537 (0x10001)
        X509v3 extensions:
            X509v3 Key Usage: critical
                Certificate Sign, CRL Sign
            X509v3 Basic Constraints: critical
                CA:TRUE
            X509v3 Subject Key Identifier: 
                E5:7F:BE:AA:F9:94:DE:25:A9:23:CB:14:82:9E:B6:38:2B:43:20:DE
            X509v3 Authority Key Identifier: 
                keyid:E5:7F:BE:AA:F9:94:DE:25:A9:23:CB:14:82:9E:B6:38:2B:43:20:DE

    Signature Algorithm: sha256WithRSAEncryption
         62:df:95:2c:f1:e1:cd:ca:37:21:f3:d0:d1:f6:df:fc:7f:94:
         77:b2:92:19:0e:9a:21:e5:d7:a9:cd:f0:13:3c:3d:7f:79:4d:
         7d:78:c6:da:79:95:f3:10:fe:61:01:56:48:31:2b:e0:2b:2c:
         ff:d5:ee:38:3f:2c:7e:8b:91:6a:18:72:a1:12:b9:2c:9b:b8:
         d5:ee:36:e3:39:09:cf:cb:8c:b3:83:68:d7:4a:6b:aa:97:03:
         3f:4c:98:09:7c:51:e1:9d:81:d6:66:f6:2c:16:8e:bd:cf:0b:
         a4:ae:4a:2c:6a:59:c3:8b:c5:88:a8:bd:8f:36:1a:eb:75:0f:
         d4:1b:b7:54:7c:2b:df:21:30:81:10:ba:52:71:18:a3:d7:69:
         e0:2d:02:d8:dc:48:39:46:7f:c3:a0:df:dc:5d:11:b9:45:ab:
         46:1b:5a:1e:77:9e:48:cf:8e:e1:0b:72:c7:b0:51:9c:6e:65:
         8d:b9:ba:cf:ac:47:5c:a5:46:d1:04:58:4e:7b:1f:34:88:fc:
         6e:b3:02:00:69:74:81:4d:be:9b:aa:9a:59:ff:3a:5d:7b:b5:
         63:84:14:0b:c9:a5:d5:e6:20:a2:43:12:85:d1:a0:ea:5d:74:
         17:ae:f4:b6:af:71:3a:e2:25:ef:25:e2:c9:8f:de:12:d5:92:
         da:83:b7:72:fa:bb:dd:ae:cc:cf:99:0d:7f:ab:93:3b:c9:5d:
         07:5d:41:bb:23:fc:14:2a:11:35:32:b8:76:fe:ff:43:69:c3:
         18:b4:20:b9:f6:69:4f:32:aa:89:8e:b7:f3:c4:a7:34:ef:46:
         70:16:5f:6c:7b:2a:01:e3:72:d4:d9:63:1e:8d:13:a0:8f:95:
         18:15:10:17:a3:c7:38:06:b5:55:aa:74:65:02:20:3a:a1:ef:
         1d:a4:f4:cb:c1:4e:57:34:95:57:d6:7a:a8:0f:15:e0:1b:13:
         db:98:70:dd:d5:de:2d:af:83:3c:9e:9c:53:71:1b:77:c3:47:
         5e:84:37:0c:03:4a:04:e8:08:43:0b:02:f4:23:07:3e:ce:63:
         20:ce:77:4c:d6:cc:26:e0:6e:36:7a:88:6a:d3:07:56:fd:db:
         89:e6:a5:ee:2f:20:f6:c2:8d:2c:44:2b:6a:b6:ad:42:4e:d7:
         9b:b1:7d:fa:c6:05:0f:61:66:37:bd:86:a3:d3:af:cf:2b:f6:
         8f:a5:2b:48:f4:9f:82:1c:92:77:4d:98:c8:74:0a:1e:e0:37:
         1f:fb:67:a9:93:35:f6:52:dd:94:73:ca:65:a5:b2:9f:58:1a:
         40:b1:a1:3a:9c:9e:43:7c:f9:e1:11:12:f8:55:8f:91:a7:61:
         15:ff:d4:78:b5:0b:5e:fb
-----BEGIN CERTIFICATE-----
MIIFrTCCA5WgAwIBAgIUY0lUkpWrCZRrnMjzOOx39x/U3jkwDQYJKoZIhvcNAQEL
BQAwXjELMAkGA1UEBhMCTk8xETAPBgNVBAoMCEdyZWVuIEFTMSQwIgYDVQQLDBtH
cmVlbiBDZXJ0aWZpY2F0ZSBBdXRob3JpdHkxFjAUBgNVBAMMDUdyZWVuIFJvb3Qg
Q0EwHhcNMjAwNTIwMTgxNDQ5WhcNMzAwNTIwMTgxNDQ5WjBeMQswCQYDVQQGEwJO
TzERMA8GA1UECgwIR3JlZW4gQVMxJDAiBgNVBAsMG0dyZWVuIENlcnRpZmljYXRl
IEF1dGhvcml0eTEWMBQGA1UEAwwNR3JlZW4gUm9vdCBDQTCCAiIwDQYJKoZIhvcN
AQEBBQADggIPADCCAgoCggIBAJ16q+1YP1jbweLaIhBjfhpgVnW1mrKVU/dFdHOn
/QGI/KyUNCZgL0I4q5Y3qRRPVMwmWDODFqjKtQGVyWWBHrSxumqCtP8VIdrBBi4C
LgKjyz+1uc4GwcBTZcIjUUUOBuV20CyVYMkTd1sQLENBgUAfxTTepsTmtCX6DEgd
gm4a/UXTbHWkNpE7kb+VZnfYF4JHo57uZkKXsHbhd244+EqSTxjurqbPkTcAJBBD
gIydH2r88+qmqU/ErndGYU35ewFHfJKtrtvPZYnY7NEBTPiqRdUisCPM62qF6eya
d9QV4IiWb1/+4sFUv588gL9f1v9nvtXbggCaDRM/CIBOaKjsbTeI4c7gsrwanbrp
3eL3UnpwOjHm+AK2IIcdsqHxg5vQjNQB2iRHOstGopmwLnyGINiH01CB81sJ5UPg
8i1AlsGe3LOWZsIc2SvGJ66LisNX35lKP4qoFECx9PE7AdlMrQAOOV8sVip6E1Sy
o2kKdKs4IHcOn1tGEaGJSR0u0rUmMer8fV0HWoGIQTO7B9YAUdC6lZyP22e7E7Yb
qYfa0hMBvkpubM3g5SZBdh+bWIRduf5Zj7Sc0EwybBF7EA1zI0YW4uFrocqZwDwd
0YeytoYGTZIr5yTMwKDdJ9SwP1Uc7IWdDIuzgm2080UxjZ2RXU+kZx/EjgMN3Dsc
aSYPAgMBAAGjYzBhMA4GA1UdDwEB/wQEAwIBBjAPBgNVHRMBAf8EBTADAQH/MB0G
A1UdDgQWBBTlf76q+ZTeJakjyxSCnrY4K0Mg3jAfBgNVHSMEGDAWgBTlf76q+ZTe
JakjyxSCnrY4K0Mg3jANBgkqhkiG9w0BAQsFAAOCAgEAYt+VLPHhzco3IfPQ0fbf
/H+Ud7KSGQ6aIeXXqc3wEzw9f3lNfXjG2nmV8xD+YQFWSDEr4Css/9XuOD8sfouR
ahhyoRK5LJu41e424zkJz8uMs4No10prqpcDP0yYCXxR4Z2B1mb2LBaOvc8LpK5K
LGpZw4vFiKi9jzYa63UP1Bu3VHwr3yEwgRC6UnEYo9dp4C0C2NxIOUZ/w6Df3F0R
uUWrRhtaHneeSM+O4Qtyx7BRnG5ljbm6z6xHXKVG0QRYTnsfNIj8brMCAGl0gU2+
m6qaWf86XXu1Y4QUC8ml1eYgokMShdGg6l10F670tq9xOuIl7yXiyY/eEtWS2oO3
cvq73a7Mz5kNf6uTO8ldB11BuyP8FCoRNTK4dv7/Q2nDGLQgufZpTzKqiY6388Sn
NO9GcBZfbHsqAeNy1NljHo0ToI+VGBUQF6PHOAa1Vap0ZQIgOqHvHaT0y8FOVzSV
V9Z6qA8V4BsT25hw3dXeLa+DPJ6cU3Ebd8NHXoQ3DANKBOgIQwsC9CMHPs5jIM53
TNbMJuBuNnqIatMHVv3bieal7i8g9sKNLEQraratQk7Xm7F9+sYFD2FmN72Go9Ov
zyv2j6UrSPSfghySd02YyHQKHuA3H/tnqZM19lLdlHPKZaWyn1gaQLGhOpyeQ3z5
4RES+FWPkadhFf/UeLULXvs=
-----END CERTIFICATE-----
