Certificate:
    Data:
        Version: 3 (0x2)
        Serial Number:
            45:21:b5:80:f4:72:c8:bd:41:7f:7d:ef:22:d7:05:17:41:3f:65:3b
        Signature Algorithm: sha256WithRSAEncryption
        Issuer: C=NO, O=Green AS, OU=Green Certificate Authority, CN=Green TLS CA
        Validity
            Not Before: Jun 20 14:58:11 2020 GMT
            Not After : Jun 20 14:58:11 2022 GMT
        Subject: C=NO, O=Green AS, OU=Green Certificate Authority, CN=Cars service
        Subject Public Key Info:
            Public Key Algorithm: rsaEncryption
                RSA Public-Key: (4096 bit)
                Modulus:
                    00:e3:13:b7:65:0f:62:f1:12:90:37:53:e5:d5:35:
                    8a:52:2e:22:eb:a7:d7:a8:96:94:cf:39:d1:52:93:
                    97:05:23:2e:0d:98:fd:bf:3b:10:13:73:8b:91:a7:
                    fc:78:ba:02:0b:33:67:77:d6:32:95:49:1d:40:32:
                    7e:61:b8:91:49:9b:30:4e:72:6b:bb:17:57:c4:04:
                    49:a2:c6:54:f3:79:c4:f8:2a:b5:da:4d:05:86:b8:
                    9d:a9:2b:d8:52:29:2d:c0:c9:34:6d:c3:e3:3d:88:
                    2b:be:c1:31:4e:f5:14:7e:e0:a2:7f:68:ae:f6:79:
                    44:50:88:62:97:27:89:9a:43:c0:6c:94:9f:87:f5:
                    1d:17:ee:39:f7:26:8f:e7:8b:26:02:b7:ac:1c:20:
                    cd:c8:3a:dd:de:22:1a:e8:24:fe:e1:ee:b1:b9:b7:
                    3c:df:10:b6:f1:35:7f:0e:dd:38:f5:d9:3b:18:8d:
                    3d:de:92:7a:cc:e6:3d:61:ee:40:13:e4:4e:62:7e:
                    00:a9:61:d8:f3:6e:7f:bb:b5:6b:bb:7c:af:68:72:
                    c2:75:ae:e4:a1:a6:2a:91:39:18:c2:ae:91:54:ca:
                    82:17:08:06:0b:76:6b:fd:36:ce:13:97:60:d8:fa:
                    3f:87:8f:90:66:fd:95:5e:bb:9a:ca:35:66:c7:49:
                    e8:1e:7d:27:42:8c:15:0e:25:cf:f4:65:fa:53:f5:
                    ae:ef:9d:5d:23:82:48:b3:8a:a5:1c:33:3e:4e:f9:
                    c6:4d:ca:95:fa:87:d5:44:a8:fc:92:d4:b4:b3:54:
                    bc:1e:8a:e3:f4:5f:50:8d:9e:73:ed:37:2e:54:c7:
                    b5:e5:a6:37:90:d0:c9:f8:41:d2:f6:a8:7e:e3:a3:
                    00:67:1b:a5:e9:20:46:09:93:72:5a:5d:07:5d:36:
                    89:6d:65:43:36:01:af:08:26:e0:c6:d6:b4:30:fd:
                    ff:2d:d8:bc:3d:d0:ba:bd:6c:1c:d6:c6:de:9f:c8:
                    7d:3f:3c:0f:01:2b:73:6c:e0:da:cd:cd:17:13:05:
                    93:a0:95:f2:f4:c9:06:7e:5e:d2:c4:af:84:81:00:
                    00:e3:e2:ec:0e:b6:45:34:9b:26:c3:a4:df:72:8e:
                    b9:0d:e3:f2:24:39:4e:d1:37:6e:c1:bb:0d:f2:7c:
                    5c:b6:19:20:42:69:32:54:15:7f:10:20:fc:6b:81:
                    ad:9b:2f:ad:18:3e:90:62:cc:8f:c4:10:7e:09:31:
                    5a:9d:fb:10:08:2f:56:60:6e:26:0b:e1:f4:9b:58:
                    b7:74:db:d3:7e:3c:de:40:01:26:f6:db:6a:fa:ed:
                    11:ab:39:dd:37:01:06:33:52:5d:98:b6:18:57:40:
                    f5:bd:19
                Exponent: 65537 (0x10001)
        X509v3 extensions:
            X509v3 Key Usage: critical
                Digital Signature, Key Encipherment
            X509v3 Basic Constraints: 
                CA:FALSE
            X509v3 Extended Key Usage: 
                TLS Web Server Authentication, TLS Web Client Authentication
            X509v3 Subject Key Identifier: 
                0A:48:F6:29:2D:97:02:C3:70:EE:A5:25:E3:5D:FB:DB:E6:A2:03:D8
            X509v3 Authority Key Identifier: 
                keyid:86:F4:C6:F3:9C:68:1D:0E:6D:42:78:2A:89:D2:A0:16:07:03:F0:70

            Authority Information Access: 
                CA Issuers - URI:http://green.no/ca/tls-ca.cer

            X509v3 CRL Distribution Points: 

                Full Name:
                  URI:http://green.no/ca/tls-ca.crl

            X509v3 Subject Alternative Name: 
                DNS:green.no, DNS:www.green.no, DNS:localhost
    Signature Algorithm: sha256WithRSAEncryption
         b2:b9:e9:9f:32:c8:cd:e7:1a:42:02:76:b9:26:b2:b6:0f:20:
         6a:87:8c:f1:18:8e:a1:2f:30:c7:98:0b:63:7e:fd:3f:ed:13:
         05:ef:12:6b:b4:53:5e:30:94:94:20:02:9e:5c:fc:2b:c4:84:
         6c:07:e2:a0:8e:32:75:39:5a:d0:1c:9e:7d:2c:31:01:b1:16:
         1a:e3:25:0d:de:d7:f3:37:d4:d2:81:4b:b8:73:09:4c:87:7e:
         06:68:52:05:7a:f2:6f:70:02:b2:61:6a:cf:03:75:e7:95:4a:
         90:ac:a0:0b:f5:a1:c6:b3:fc:15:a0:ad:64:2e:91:cb:76:05:
         ed:a3:61:bd:06:95:fa:b0:73:1f:ec:1d:0f:3a:7d:7c:ab:73:
         b2:24:2b:5f:a3:0d:fc:b1:42:fa:8a:69:1c:1c:2e:80:12:d3:
         ed:f6:89:97:f1:96:88:8e:75:93:63:43:5f:49:cd:e1:4b:d7:
         b7:43:7f:21:35:24:05:94:45:39:df:f3:03:7f:54:27:b5:f8:
         7c:a3:51:e1:9e:e4:a5:f9:75:0e:67:9f:dc:dc:47:0c:29:8f:
         21:34:27:50:ee:8b:6d:f8:61:f8:0a:d2:84:e8:e8:ea:69:e0:
         15:16:82:fa:3c:77:a5:e2:3e:e5:35:67:14:1e:72:04:97:f7:
         58:75:c0:73:f5:87:4e:6c:1c:33:5b:50:1e:09:89:b9:15:97:
         8a:29:aa:e0:ad:1f:22:46:58:b5:31:06:41:60:17:cc:ba:ed:
         c1:1d:e9:74:c8:36:30:85:8f:1b:c8:11:3a:ed:d7:03:ce:b4:
         69:9c:bf:8b:56:31:31:0c:04:d6:5e:ca:3a:56:5e:d9:92:5f:
         42:d7:32:4a:3e:ca:f3:d4:54:ec:f8:06:30:b8:37:9a:09:7f:
         b8:8f:b9:23:cc:da:a8:76:5d:86:be:fb:bb:28:84:ae:4f:94:
         35:ee:bf:8f:cc:18:ca:1f:17:36:88:cc:9e:f2:e7:9f:5f:8f:
         d7:08:e5:ec:8f:fc:ca:ed:af:46:bc:d0:11:23:de:2c:7b:83:
         64:e7:0a:f4:d2:1f:43:9a:4b:e1:50:d5:bd:f7:5b:2e:89:f2:
         47:46:8e:e2:9e:7f:0f:be:94:b5:ab:39:84:0a:47:a2:77:ae:
         ce:6f:91:e9:49:ed:6e:d7:0f:b0:be:28:7c:91:71:8d:67:cb:
         f6:82:4b:01:e2:cf:85:a5:36:3b:2e:a1:68:44:3c:aa:a4:7d:
         6d:3d:3a:6f:8e:66:8d:f5:fe:99:81:ff:fb:27:24:c9:f7:1b:
         17:70:1a:e8:75:d2:e2:de:86:4b:e0:31:0c:8c:28:4d:a2:8e:
         b1:ad:dd:8a:0b:11:95:e0
-----BEGIN CERTIFICATE-----
MIIGYTCCBEmgAwIBAgIURSG1gPRyyL1Bf33vItcFF0E/ZTswDQYJKoZIhvcNAQEL
BQAwXTELMAkGA1UEBhMCTk8xETAPBgNVBAoMCEdyZWVuIEFTMSQwIgYDVQQLDBtH
cmVlbiBDZXJ0aWZpY2F0ZSBBdXRob3JpdHkxFTATBgNVBAMMDEdyZWVuIFRMUyBD
QTAeFw0yMDA2MjAxNDU4MTFaFw0yMjA2MjAxNDU4MTFaMF0xCzAJBgNVBAYTAk5P
MREwDwYDVQQKDAhHcmVlbiBBUzEkMCIGA1UECwwbR3JlZW4gQ2VydGlmaWNhdGUg
QXV0aG9yaXR5MRUwEwYDVQQDDAxDYXJzIHNlcnZpY2UwggIiMA0GCSqGSIb3DQEB
AQUAA4ICDwAwggIKAoICAQDjE7dlD2LxEpA3U+XVNYpSLiLrp9eolpTPOdFSk5cF
Iy4NmP2/OxATc4uRp/x4ugILM2d31jKVSR1AMn5huJFJmzBOcmu7F1fEBEmixlTz
ecT4KrXaTQWGuJ2pK9hSKS3AyTRtw+M9iCu+wTFO9RR+4KJ/aK72eURQiGKXJ4ma
Q8BslJ+H9R0X7jn3Jo/niyYCt6wcIM3IOt3eIhroJP7h7rG5tzzfELbxNX8O3Tj1
2TsYjT3eknrM5j1h7kAT5E5ifgCpYdjzbn+7tWu7fK9ocsJ1ruShpiqRORjCrpFU
yoIXCAYLdmv9Ns4Tl2DY+j+Hj5Bm/ZVeu5rKNWbHSegefSdCjBUOJc/0ZfpT9a7v
nV0jgkiziqUcMz5O+cZNypX6h9VEqPyS1LSzVLweiuP0X1CNnnPtNy5Ux7XlpjeQ
0Mn4QdL2qH7jowBnG6XpIEYJk3JaXQddNoltZUM2Aa8IJuDG1rQw/f8t2Lw90Lq9
bBzWxt6fyH0/PA8BK3Ns4NrNzRcTBZOglfL0yQZ+XtLEr4SBAADj4uwOtkU0mybD
pN9yjrkN4/IkOU7RN27Buw3yfFy2GSBCaTJUFX8QIPxrga2bL60YPpBizI/EEH4J
MVqd+xAIL1ZgbiYL4fSbWLd029N+PN5AASb222r67RGrOd03AQYzUl2YthhXQPW9
GQIDAQABo4IBFzCCARMwDgYDVR0PAQH/BAQDAgWgMAkGA1UdEwQCMAAwHQYDVR0l
BBYwFAYIKwYBBQUHAwEGCCsGAQUFBwMCMB0GA1UdDgQWBBQKSPYpLZcCw3DupSXj
Xfvb5qID2DAfBgNVHSMEGDAWgBSG9MbznGgdDm1CeCqJ0qAWBwPwcDA5BggrBgEF
BQcBAQQtMCswKQYIKwYBBQUHMAKGHWh0dHA6Ly9ncmVlbi5uby9jYS90bHMtY2Eu
Y2VyMC4GA1UdHwQnMCUwI6AhoB+GHWh0dHA6Ly9ncmVlbi5uby9jYS90bHMtY2Eu
Y3JsMCwGA1UdEQQlMCOCCGdyZWVuLm5vggx3d3cuZ3JlZW4ubm+CCWxvY2FsaG9z
dDANBgkqhkiG9w0BAQsFAAOCAgEAsrnpnzLIzecaQgJ2uSaytg8gaoeM8RiOoS8w
x5gLY379P+0TBe8Sa7RTXjCUlCACnlz8K8SEbAfioI4ydTla0ByefSwxAbEWGuMl
Dd7X8zfU0oFLuHMJTId+BmhSBXryb3ACsmFqzwN155VKkKygC/WhxrP8FaCtZC6R
y3YF7aNhvQaV+rBzH+wdDzp9fKtzsiQrX6MN/LFC+oppHBwugBLT7faJl/GWiI51
k2NDX0nN4UvXt0N/ITUkBZRFOd/zA39UJ7X4fKNR4Z7kpfl1Dmef3NxHDCmPITQn
UO6Lbfhh+ArShOjo6mngFRaC+jx3peI+5TVnFB5yBJf3WHXAc/WHTmwcM1tQHgmJ
uRWXiimq4K0fIkZYtTEGQWAXzLrtwR3pdMg2MIWPG8gROu3XA860aZy/i1YxMQwE
1l7KOlZe2ZJfQtcySj7K89RU7PgGMLg3mgl/uI+5I8zaqHZdhr77uyiErk+UNe6/
j8wYyh8XNojMnvLnn1+P1wjl7I/8yu2vRrzQESPeLHuDZOcK9NIfQ5pL4VDVvfdb
LonyR0aO4p5/D76Utas5hApHoneuzm+R6UntbtcPsL4ofJFxjWfL9oJLAeLPhaU2
Oy6haEQ8qqR9bT06b45mjfX+mYH/+yckyfcbF3Aa6HXS4t6GS+AxDIwoTaKOsa3d
igsRleA=
-----END CERTIFICATE-----
